Component: ARM Compiler 5.06 update 7 (build 960) Tool: armlink [4d3601]

==============================================================================

Section Cross References

    main.o(i.app_close_bmi160_acc) refers to bmi160.o(i.bmi160_set_sens_conf) for bmi160_set_sens_conf
    main.o(i.app_close_bmi160_gyro) refers to bmi160.o(i.bmi160_set_sens_conf) for bmi160_set_sens_conf
    main.o(i.app_open_bmi160_acc) refers to bmi160.o(i.bmi160_set_sens_conf) for bmi160_set_sens_conf
    main.o(i.app_open_bmi160_aux) refers to bmi160.o(i.bmi160_set_regs) for bmi160_set_regs
    main.o(i.app_open_bmi160_aux) refers to bmi160.o(i.bmi160_aux_init) for bmi160_aux_init
    main.o(i.app_open_bmi160_aux) refers to nrf_log_frontend.o(i.nrf_log_frontend_std_1) for nrf_log_frontend_std_1
    main.o(i.app_open_bmi160_aux) refers to bmm150.o(i.bmm150_init) for bmm150_init
    main.o(i.app_open_bmi160_aux) refers to bmm150.o(i.bmm150_set_presetmode) for bmm150_set_presetmode
    main.o(i.app_open_bmi160_aux) refers to bmm150.o(i.bmm150_set_op_mode) for bmm150_set_op_mode
    main.o(i.app_open_bmi160_aux) refers to bmi160.o(i.bmi160_set_aux_auto_mode) for bmi160_set_aux_auto_mode
    main.o(i.app_open_bmi160_aux) refers to nrf_log_frontend.o(log_const_data) for m_nrf_log_app_logs_data_const
    main.o(i.app_open_bmi160_aux) refers to main.o(.data) for .data
    main.o(i.app_open_bmi160_fifo) refers to bmi160.o(i.bmi160_set_fifo_config) for bmi160_set_fifo_config
    main.o(i.app_open_bmi160_fifo) refers to nrf_log_frontend.o(i.nrf_log_frontend_std_1) for nrf_log_frontend_std_1
    main.o(i.app_open_bmi160_fifo) refers to bmi160.o(i.bmi160_set_fifo_flush) for bmi160_set_fifo_flush
    main.o(i.app_open_bmi160_fifo) refers to main.o(.bss) for .bss
    main.o(i.app_open_bmi160_fifo) refers to nrf_log_frontend.o(log_const_data) for m_nrf_log_app_logs_data_const
    main.o(i.app_open_bmi160_gyro) refers to bmi160.o(i.bmi160_set_sens_conf) for bmi160_set_sens_conf
    main.o(i.app_open_bmi160_no_motion) refers to bmi160.o(i.bmi160_set_int_config) for bmi160_set_int_config
    main.o(i.app_open_bmi160_no_motion) refers to nrf_log_frontend.o(i.nrf_log_frontend_std_1) for nrf_log_frontend_std_1
    main.o(i.app_open_bmi160_no_motion) refers to nrf_log_frontend.o(log_const_data) for m_nrf_log_app_logs_data_const
    main.o(i.app_open_bmi160_tap) refers to bmi160.o(i.bmi160_set_int_config) for bmi160_set_int_config
    main.o(i.app_open_bmi160_tap) refers to nrf_log_frontend.o(i.nrf_log_frontend_std_1) for nrf_log_frontend_std_1
    main.o(i.app_open_bmi160_tap) refers to nrf_log_frontend.o(log_const_data) for m_nrf_log_app_logs_data_const
    main.o(i.app_timer_callback) refers to nrfx_wdt.o(i.nrfx_wdt_channel_feed) for nrfx_wdt_channel_feed
    main.o(i.app_timer_callback) refers to nrfx_saadc.o(i.nrfx_saadc_init) for nrfx_saadc_init
    main.o(i.app_timer_callback) refers to app_error_handler_keil.o(.emb_text) for app_error_handler
    main.o(i.app_timer_callback) refers to nrfx_saadc.o(i.nrfx_saadc_channel_init) for nrfx_saadc_channel_init
    main.o(i.app_timer_callback) refers to main.o(i.usr_get_volt) for usr_get_volt
    main.o(i.app_timer_callback) refers to nrfx_saadc.o(i.nrfx_saadc_uninit) for nrfx_saadc_uninit
    main.o(i.app_timer_callback) refers to main.o(.data) for .data
    main.o(i.app_timer_callback) refers to main.o(.constdata) for .constdata
    main.o(i.app_timer_callback) refers to main.o(i.saadc_callback) for saadc_callback
    main.o(i.app_timer_callback) refers to main.o(i.on_adv_evt) for i.on_adv_evt
    main.o(i.assert_nrf_callback) refers to app_error_handler_keil.o(.emb_text) for app_error_handler
    main.o(i.ble_evt_handler) refers to app_error_handler_keil.o(.emb_text) for app_error_handler
    main.o(i.ble_evt_handler) refers to nrf_log_frontend.o(i.nrf_log_frontend_std_0) for nrf_log_frontend_std_0
    main.o(i.ble_evt_handler) refers to bsp.o(i.bsp_indication_set) for bsp_indication_set
    main.o(i.ble_evt_handler) refers to nrf_ble_qwr.o(i.nrf_ble_qwr_conn_handle_assign) for nrf_ble_qwr_conn_handle_assign
    main.o(i.ble_evt_handler) refers to nrf_log_frontend.o(log_const_data) for m_nrf_log_app_logs_data_const
    main.o(i.ble_evt_handler) refers to main.o(.data) for .data
    main.o(i.ble_evt_handler) refers to main.o(.bss) for .bss
    main.o(i.ble_evt_handler) refers to main.o(.constdata) for .constdata
    main.o(i.ble_send_data) refers to ble_nus.o(i.ble_nus_data_send) for ble_nus_data_send
    main.o(i.ble_send_data) refers to app_error_handler_keil.o(.emb_text) for app_error_handler
    main.o(i.ble_send_data) refers to main.o(.data) for .data
    main.o(i.ble_send_data) refers to main.o(i.on_adv_evt) for i.on_adv_evt
    main.o(i.ble_send_packet) refers to memcpya.o(.text) for __aeabi_memcpy
    main.o(i.ble_send_packet) refers to main.o(i.calc_checksum) for calc_checksum
    main.o(i.ble_send_packet) refers to main.o(i.ble_send_data) for ble_send_data
    main.o(i.ble_send_packet) refers to main.o(.data) for .data
    main.o(i.ble_send_ram_and_flash_sensor_data) refers to memseta.o(.text) for __aeabi_memclr4
    main.o(i.ble_send_ram_and_flash_sensor_data) refers to sys_queue.o(i.queue_empty) for queue_empty
    main.o(i.ble_send_ram_and_flash_sensor_data) refers to nrf_log_frontend.o(i.nrf_log_frontend_std_1) for nrf_log_frontend_std_1
    main.o(i.ble_send_ram_and_flash_sensor_data) refers to nrf_flash.o(i.nrf_flash_read) for nrf_flash_read
    main.o(i.ble_send_ram_and_flash_sensor_data) refers to nrf_log_frontend.o(i.nrf_log_frontend_std_0) for nrf_log_frontend_std_0
    main.o(i.ble_send_ram_and_flash_sensor_data) refers to sys_queue.o(i.queue_out) for queue_out
    main.o(i.ble_send_ram_and_flash_sensor_data) refers to main.o(i.ble_send_packet) for ble_send_packet
    main.o(i.ble_send_ram_and_flash_sensor_data) refers to main.o(.bss) for .bss
    main.o(i.ble_send_ram_and_flash_sensor_data) refers to main.o(.data) for .data
    main.o(i.ble_send_ram_and_flash_sensor_data) refers to nrf_log_frontend.o(log_const_data) for m_nrf_log_app_logs_data_const
    main.o(i.bmi160_get_mag_data) refers to bmi160.o(i.bmi160_read_aux_data_auto_mode) for bmi160_read_aux_data_auto_mode
    main.o(i.bmi160_get_mag_data) refers to nrf_log_frontend.o(i.nrf_log_frontend_std_1) for nrf_log_frontend_std_1
    main.o(i.bmi160_get_mag_data) refers to bmm150.o(i.bmm150_aux_mag_data) for bmm150_aux_mag_data
    main.o(i.bmi160_get_mag_data) refers to nrf_log_frontend.o(i.nrf_log_frontend_std_3) for nrf_log_frontend_std_3
    main.o(i.bmi160_get_mag_data) refers to nrf_log_frontend.o(log_const_data) for m_nrf_log_app_logs_data_const
    main.o(i.bmi160_get_mag_data) refers to main.o(.data) for .data
    main.o(i.bmi160_timer_callback) refers to main.o(.data) for .data
    main.o(i.bmm150_aux_read) refers to bmi160.o(i.bmi160_aux_read) for bmi160_aux_read
    main.o(i.bmm150_aux_read) refers to main.o(.bss) for .bss
    main.o(i.bmm150_aux_write) refers to bmi160.o(i.bmi160_aux_write) for bmi160_aux_write
    main.o(i.bmm150_aux_write) refers to main.o(.bss) for .bss
    main.o(i.bsp_event_handler) refers to bsp.o(i.bsp_indication_set) for bsp_indication_set
    main.o(i.bsp_event_handler) refers to app_error_handler_keil.o(.emb_text) for app_error_handler
    main.o(i.bsp_event_handler) refers to bsp_btn_ble.o(i.bsp_btn_ble_sleep_mode_prepare) for bsp_btn_ble_sleep_mode_prepare
    main.o(i.bsp_event_handler) refers to ble_advertising.o(i.ble_advertising_restart_without_whitelist) for ble_advertising_restart_without_whitelist
    main.o(i.bsp_event_handler) refers to main.o(.data) for .data
    main.o(i.bsp_event_handler) refers to main.o(i.on_adv_evt) for i.on_adv_evt
    main.o(i.bsp_event_handler) refers to main.o(.bss) for .bss
    main.o(i.conn_params_error_handler) refers to app_error_handler_keil.o(.emb_text) for app_error_handler
    main.o(i.erase_save_sensor_flash_sector) refers to nrf_flash.o(i.nrf_flash_erase) for nrf_flash_erase
    main.o(i.gatt_evt_handler) refers to nrf_log_frontend.o(i.nrf_log_frontend_std_2) for nrf_log_frontend_std_2
    main.o(i.gatt_evt_handler) refers to main.o(.data) for .data
    main.o(i.gatt_evt_handler) refers to nrf_log_frontend.o(log_const_data) for m_nrf_log_app_logs_data_const
    main.o(i.gatt_init) refers to nrf_ble_gatt.o(i.nrf_ble_gatt_init) for nrf_ble_gatt_init
    main.o(i.gatt_init) refers to app_error_handler_keil.o(.emb_text) for app_error_handler
    main.o(i.gatt_init) refers to nrf_ble_gatt.o(i.nrf_ble_gatt_att_mtu_periph_set) for nrf_ble_gatt_att_mtu_periph_set
    main.o(i.gatt_init) refers to main.o(i.gatt_evt_handler) for gatt_evt_handler
    main.o(i.gatt_init) refers to main.o(.bss) for .bss
    main.o(i.gatt_init) refers to main.o(i.on_adv_evt) for i.on_adv_evt
    main.o(i.main) refers to nrf_log_frontend.o(i.nrf_log_init) for nrf_log_init
    main.o(i.main) refers to app_error_handler_keil.o(.emb_text) for app_error_handler
    main.o(i.main) refers to nrf_log_default_backends.o(i.nrf_log_default_backends_init) for nrf_log_default_backends_init
    main.o(i.main) refers to app_timer2.o(i.app_timer_init) for app_timer_init
    main.o(i.main) refers to nrf_pwr_mgmt.o(i.nrf_pwr_mgmt_init) for nrf_pwr_mgmt_init
    main.o(i.main) refers to nrf_sdh.o(i.nrf_sdh_enable_request) for nrf_sdh_enable_request
    main.o(i.main) refers to nrf_sdh_ble.o(i.nrf_sdh_ble_default_cfg_set) for nrf_sdh_ble_default_cfg_set
    main.o(i.main) refers to nrf_sdh_ble.o(i.nrf_sdh_ble_enable) for nrf_sdh_ble_enable
    main.o(i.main) refers to nrf_ble_gatt.o(i.nrf_ble_gatt_init) for nrf_ble_gatt_init
    main.o(i.main) refers to nrf_ble_gatt.o(i.nrf_ble_gatt_att_mtu_periph_set) for nrf_ble_gatt_att_mtu_periph_set
    main.o(i.main) refers to nrf_ble_qwr.o(i.nrf_ble_qwr_init) for nrf_ble_qwr_init
    main.o(i.main) refers to ble_nus.o(i.ble_nus_init) for ble_nus_init
    main.o(i.main) refers to memseta.o(.text) for __aeabi_memclr4
    main.o(i.main) refers to ble_advertising.o(i.ble_advertising_init) for ble_advertising_init
    main.o(i.main) refers to ble_advertising.o(i.ble_advertising_conn_cfg_tag_set) for ble_advertising_conn_cfg_tag_set
    main.o(i.main) refers to ble_conn_params.o(i.ble_conn_params_init) for ble_conn_params_init
    main.o(i.main) refers to ble_advertising.o(i.ble_advertising_start) for ble_advertising_start
    main.o(i.main) refers to nrf_log_frontend.o(i.nrf_log_frontend_std_2) for nrf_log_frontend_std_2
    main.o(i.main) refers to nrf_flash.o(i.nrf_flash_init) for nrf_flash_init
    main.o(i.main) refers to sys_queue.o(i.queue_init) for queue_init
    main.o(i.main) refers to app_timer2.o(i.app_timer_create) for app_timer_create
    main.o(i.main) refers to app_timer2.o(i.app_timer_start) for app_timer_start
    main.o(i.main) refers to nrfx_wdt.o(i.nrfx_wdt_init) for nrfx_wdt_init
    main.o(i.main) refers to nrfx_wdt.o(i.nrfx_wdt_channel_alloc) for nrfx_wdt_channel_alloc
    main.o(i.main) refers to nrfx_wdt.o(i.nrfx_wdt_enable) for nrfx_wdt_enable
    main.o(i.main) refers to nrfx_saadc.o(i.nrfx_saadc_init) for nrfx_saadc_init
    main.o(i.main) refers to nrfx_saadc.o(i.nrfx_saadc_channel_init) for nrfx_saadc_channel_init
    main.o(i.main) refers to main.o(i.usr_get_volt) for usr_get_volt
    main.o(i.main) refers to nrfx_saadc.o(i.nrfx_saadc_uninit) for nrfx_saadc_uninit
    main.o(i.main) refers to nrf_log_frontend.o(i.nrf_log_frontend_dequeue) for nrf_log_frontend_dequeue
    main.o(i.main) refers to nrfx_spi.o(i.nrfx_spi_uninit) for nrfx_spi_uninit
    main.o(i.main) refers to nrf_pwr_mgmt.o(i.nrf_pwr_mgmt_run) for nrf_pwr_mgmt_run
    main.o(i.main) refers to main.o(i.ble_send_ram_and_flash_sensor_data) for ble_send_ram_and_flash_sensor_data
    main.o(i.main) refers to nrf_flash.o(i.nrf_flash_erase) for nrf_flash_erase
    main.o(i.main) refers to nrf_drv_spi.o(i.nrf_drv_spi_init) for nrf_drv_spi_init
    main.o(i.main) refers to main.o(i.on_adv_evt) for i.on_adv_evt
    main.o(i.main) refers to main.o(i.gatt_evt_handler) for gatt_evt_handler
    main.o(i.main) refers to main.o(.bss) for .bss
    main.o(i.main) refers to main.o(i.nrf_qwr_error_handler) for nrf_qwr_error_handler
    main.o(i.main) refers to main.o(i.nus_data_handler) for nus_data_handler
    main.o(i.main) refers to main.o(.data) for .data
    main.o(i.main) refers to main.o(i.on_conn_params_evt) for on_conn_params_evt
    main.o(i.main) refers to main.o(i.conn_params_error_handler) for conn_params_error_handler
    main.o(i.main) refers to nrf_log_frontend.o(log_const_data) for m_nrf_log_app_logs_data_const
    main.o(i.main) refers to main.o(.constdata) for .constdata
    main.o(i.main) refers to main.o(i.app_timer_callback) for app_timer_callback
    main.o(i.main) refers to main.o(i.wdt_event_handler) for wdt_event_handler
    main.o(i.main) refers to main.o(i.saadc_callback) for saadc_callback
    main.o(i.main) refers to main.o(i.spi_event_handler) for spi_event_handler
    main.o(i.main) refers to main.o(i.nrf52_write_spi) for nrf52_write_spi
    main.o(i.main) refers to main.o(i.nrf52_read_spi) for nrf52_read_spi
    main.o(i.main) refers to main.o(i.nrf_delay_ms) for nrf_delay_ms
    main.o(i.main) refers to bmi160.o(i.bmi160_soft_reset) for bmi160_soft_reset
    main.o(i.main) refers to bmi160.o(i.bmi160_init) for bmi160_init
    main.o(i.main) refers to bmi160.o(i.bmi160_set_sens_conf) for bmi160_set_sens_conf
    main.o(i.main) refers to main.o(i.app_open_bmi160_aux) for app_open_bmi160_aux
    main.o(i.main) refers to main.o(i.app_open_bmi160_fifo) for app_open_bmi160_fifo
    main.o(i.main) refers to bmi160.o(i.bmi160_get_fifo_data) for bmi160_get_fifo_data
    main.o(i.main) refers to bmi160.o(i.bmi160_extract_aux) for bmi160_extract_aux
    main.o(i.main) refers to bmi160.o(i.bmi160_extract_gyro) for bmi160_extract_gyro
    main.o(i.main) refers to bmi160.o(i.bmi160_extract_accel) for bmi160_extract_accel
    main.o(i.main) refers to bmm150.o(i.bmm150_aux_mag_data) for bmm150_aux_mag_data
    main.o(i.main) refers to memcpya.o(.text) for __aeabi_memcpy
    main.o(i.main) refers to main.o(i.calc_checksum) for calc_checksum
    main.o(i.main) refers to main.o(i.ble_send_data) for ble_send_data
    main.o(i.main) refers to sys_queue.o(i.queue_full) for queue_full
    main.o(i.main) refers to nrf_log_frontend.o(i.nrf_log_frontend_std_1) for nrf_log_frontend_std_1
    main.o(i.main) refers to nrf_flash.o(i.nrf_flash_write) for nrf_flash_write
    main.o(i.main) refers to sys_queue.o(i.queue_in) for queue_in
    main.o(i.main) refers to nrf_log_frontend.o(i.nrf_log_frontend_std_0) for nrf_log_frontend_std_0
    main.o(i.main) refers to main.o(i.save_sensor_data_to_ram_and_flash) for i.save_sensor_data_to_ram_and_flash
    main.o(i.nrf52_read_spi) refers to nrfx_spi.o(i.nrfx_spi_xfer) for nrfx_spi_xfer
    main.o(i.nrf52_read_spi) refers to memcpya.o(.text) for __aeabi_memcpy
    main.o(i.nrf52_read_spi) refers to main.o(.data) for .data
    main.o(i.nrf52_read_spi) refers to main.o(.bss) for .bss
    main.o(i.nrf52_read_spi) refers to main.o(.constdata) for .constdata
    main.o(i.nrf52_write_spi) refers to memcpya.o(.text) for __aeabi_memcpy
    main.o(i.nrf52_write_spi) refers to nrfx_spi.o(i.nrfx_spi_xfer) for nrfx_spi_xfer
    main.o(i.nrf52_write_spi) refers to main.o(.data) for .data
    main.o(i.nrf52_write_spi) refers to main.o(.bss) for .bss
    main.o(i.nrf52_write_spi) refers to main.o(.constdata) for .constdata
    main.o(i.nrf_delay_ms) refers to main.o(.constdata) for .constdata
    main.o(i.nrf_qwr_error_handler) refers to app_error_handler_keil.o(.emb_text) for app_error_handler
    main.o(i.nus_data_handler) refers to main.o(i.calc_checksum) for calc_checksum
    main.o(i.nus_data_handler) refers to memcpya.o(.text) for __aeabi_memcpy4
    main.o(i.nus_data_handler) refers to main.o(i.ble_send_data) for ble_send_data
    main.o(i.nus_data_handler) refers to dfltui.o(.text) for __aeabi_ui2d
    main.o(i.nus_data_handler) refers to ddiv.o(.text) for __aeabi_ddiv
    main.o(i.nus_data_handler) refers to dfixui.o(.text) for __aeabi_d2uiz
    main.o(i.nus_data_handler) refers to main.o(.data) for .data
    main.o(i.nus_data_handler) refers to main.o(.constdata) for .constdata
    main.o(i.nus_data_handler) refers to sys_queue.o(i.queue_empty) for queue_empty
    main.o(i.nus_data_handler) refers to main.o(.bss) for .bss
    main.o(i.on_adv_evt) refers to bsp.o(i.bsp_indication_set) for bsp_indication_set
    main.o(i.on_adv_evt) refers to app_error_handler_keil.o(.emb_text) for app_error_handler
    main.o(i.on_adv_evt) refers to bsp_btn_ble.o(i.bsp_btn_ble_sleep_mode_prepare) for bsp_btn_ble_sleep_mode_prepare
    main.o(i.on_conn_params_evt) refers to app_error_handler_keil.o(.emb_text) for app_error_handler
    main.o(i.on_conn_params_evt) refers to main.o(.data) for .data
    main.o(i.print_bmi160_int_status) refers to bmi160.o(i.bmi160_get_int_status) for bmi160_get_int_status
    main.o(i.print_bmi160_int_status) refers to nrf_log_frontend.o(i.nrf_log_frontend_std_4) for nrf_log_frontend_std_4
    main.o(i.print_bmi160_int_status) refers to nrf_log_frontend.o(i.nrf_log_frontend_std_0) for nrf_log_frontend_std_0
    main.o(i.print_bmi160_int_status) refers to nrf_log_frontend.o(log_const_data) for m_nrf_log_app_logs_data_const
    main.o(i.print_bmi160_rslt) refers to nrf_log_frontend.o(i.nrf_log_frontend_std_1) for nrf_log_frontend_std_1
    main.o(i.print_bmi160_rslt) refers to nrf_log_frontend.o(log_const_data) for m_nrf_log_app_logs_data_const
    main.o(i.saadc_init) refers to nrfx_saadc.o(i.nrfx_saadc_init) for nrfx_saadc_init
    main.o(i.saadc_init) refers to app_error_handler_keil.o(.emb_text) for app_error_handler
    main.o(i.saadc_init) refers to nrfx_saadc.o(i.nrfx_saadc_channel_init) for nrfx_saadc_channel_init
    main.o(i.saadc_init) refers to main.o(.constdata) for .constdata
    main.o(i.saadc_init) refers to main.o(i.saadc_callback) for saadc_callback
    main.o(i.saadc_init) refers to main.o(i.on_adv_evt) for i.on_adv_evt
    main.o(i.save_sensor_data_to_ram_and_flash) refers to sys_queue.o(i.queue_full) for queue_full
    main.o(i.save_sensor_data_to_ram_and_flash) refers to nrf_log_frontend.o(i.nrf_log_frontend_std_1) for nrf_log_frontend_std_1
    main.o(i.save_sensor_data_to_ram_and_flash) refers to nrf_flash.o(i.nrf_flash_write) for nrf_flash_write
    main.o(i.save_sensor_data_to_ram_and_flash) refers to sys_queue.o(i.queue_in) for queue_in
    main.o(i.save_sensor_data_to_ram_and_flash) refers to nrf_log_frontend.o(i.nrf_log_frontend_std_0) for nrf_log_frontend_std_0
    main.o(i.save_sensor_data_to_ram_and_flash) refers to main.o(.bss) for .bss
    main.o(i.save_sensor_data_to_ram_and_flash) refers to main.o(.data) for .data
    main.o(i.save_sensor_data_to_ram_and_flash) refers to nrf_log_frontend.o(log_const_data) for m_nrf_log_app_logs_data_const
    main.o(i.spi_disable) refers to nrfx_spi.o(i.nrfx_spi_uninit) for nrfx_spi_uninit
    main.o(i.spi_disable) refers to main.o(.constdata) for .constdata
    main.o(i.spi_enable) refers to nrf_drv_spi.o(i.nrf_drv_spi_init) for nrf_drv_spi_init
    main.o(i.spi_enable) refers to app_error_handler_keil.o(.emb_text) for app_error_handler
    main.o(i.spi_enable) refers to main.o(.constdata) for .constdata
    main.o(i.spi_enable) refers to main.o(i.spi_event_handler) for spi_event_handler
    main.o(i.spi_enable) refers to main.o(i.on_adv_evt) for i.on_adv_evt
    main.o(i.spi_event_handler) refers to main.o(.data) for .data
    main.o(i.spi_master_init) refers to nrf_drv_spi.o(i.nrf_drv_spi_init) for nrf_drv_spi_init
    main.o(i.spi_master_init) refers to app_error_handler_keil.o(.emb_text) for app_error_handler
    main.o(i.spi_master_init) refers to main.o(.constdata) for .constdata
    main.o(i.spi_master_init) refers to main.o(i.spi_event_handler) for spi_event_handler
    main.o(i.usr_get_volt) refers to nrfx_saadc.o(i.nrfx_saadc_sample_convert) for nrfx_saadc_sample_convert
    main.o(i.usr_get_volt) refers to dflti.o(.text) for __aeabi_i2d
    main.o(i.usr_get_volt) refers to dmul.o(.text) for __aeabi_dmul
    main.o(i.usr_get_volt) refers to dscalb.o(.text) for __ARM_scalbn
    main.o(i.usr_get_volt) refers to dfixui.o(.text) for __aeabi_d2uiz
    main.o(.constdata) refers to main.o(.data) for app_timer_data
    main.o(.data) refers to main.o(.data) for m_nus_link_ctx_storage
    main.o(.data) refers to main.o(i.bmm150_aux_read) for bmm150_aux_read
    main.o(.data) refers to main.o(i.bmm150_aux_write) for bmm150_aux_write
    main.o(.data) refers to main.o(i.nrf_delay_ms) for nrf_delay_ms
    main.o(.data) refers to main.o(.data) for m_nus_link_ctx_storage_ctx_data_pool
    main.o(sdh_ble_observers1) refers to nrf_ble_gatt.o(i.nrf_ble_gatt_on_ble_evt) for nrf_ble_gatt_on_ble_evt
    main.o(sdh_ble_observers1) refers to main.o(.bss) for m_gatt
    main.o(sdh_ble_observers1) refers to ble_advertising.o(i.ble_advertising_on_ble_evt) for ble_advertising_on_ble_evt
    main.o(sdh_ble_observers2) refers to ble_nus.o(i.ble_nus_on_ble_evt) for ble_nus_on_ble_evt
    main.o(sdh_ble_observers2) refers to main.o(.data) for m_nus
    main.o(sdh_ble_observers2) refers to nrf_ble_qwr.o(i.nrf_ble_qwr_on_ble_evt) for nrf_ble_qwr_on_ble_evt
    main.o(sdh_ble_observers2) refers to main.o(.bss) for m_qwr
    main.o(sdh_ble_observers3) refers to main.o(i.ble_evt_handler) for ble_evt_handler
    bmm150.o(i.bmm150_get_interrupt_status) refers to bmm150.o(i.bmm150_get_regs) for bmm150_get_regs
    bmm150.o(i.bmm150_get_op_mode) refers to bmm150.o(i.bmm150_get_regs) for bmm150_get_regs
    bmm150.o(i.bmm150_get_sensor_settings) refers to bmm150.o(i.bmm150_get_regs) for bmm150_get_regs
    bmm150.o(i.bmm150_init) refers to bmm150.o(i.bmm150_get_regs) for bmm150_get_regs
    bmm150.o(i.bmm150_init) refers to bmm150.o(i.bmm150_set_regs) for bmm150_set_regs
    bmm150.o(i.bmm150_perform_self_test) refers to bmm150.o(i.bmm150_set_op_mode) for bmm150_set_op_mode
    bmm150.o(i.bmm150_perform_self_test) refers to bmm150.o(i.bmm150_get_regs) for bmm150_get_regs
    bmm150.o(i.bmm150_perform_self_test) refers to bmm150.o(i.bmm150_set_regs) for bmm150_set_regs
    bmm150.o(i.bmm150_perform_self_test) refers to bmm150.o(i.bmm150_read_mag_data) for bmm150_read_mag_data
    bmm150.o(i.bmm150_read_mag_data) refers to bmm150.o(i.bmm150_get_regs) for bmm150_get_regs
    bmm150.o(i.bmm150_set_op_mode) refers to bmm150.o(i.bmm150_get_regs) for bmm150_get_regs
    bmm150.o(i.bmm150_set_op_mode) refers to bmm150.o(i.bmm150_set_regs) for bmm150_set_regs
    bmm150.o(i.bmm150_set_op_mode) refers to bmm150.o(i.suspend_to_sleep_mode) for suspend_to_sleep_mode
    bmm150.o(i.bmm150_set_presetmode) refers to bmm150.o(i.set_odr_xyz_rep) for set_odr_xyz_rep
    bmm150.o(i.bmm150_set_sensor_settings) refers to bmm150.o(i.bmm150_get_regs) for bmm150_get_regs
    bmm150.o(i.bmm150_set_sensor_settings) refers to bmm150.o(i.bmm150_set_regs) for bmm150_set_regs
    bmm150.o(i.bmm150_soft_reset) refers to bmm150.o(i.bmm150_get_regs) for bmm150_get_regs
    bmm150.o(i.bmm150_soft_reset) refers to bmm150.o(i.bmm150_set_regs) for bmm150_set_regs
    bmm150.o(i.set_odr_xyz_rep) refers to bmm150.o(i.bmm150_get_regs) for bmm150_get_regs
    bmm150.o(i.set_odr_xyz_rep) refers to bmm150.o(i.bmm150_set_regs) for bmm150_set_regs
    bmm150.o(i.suspend_to_sleep_mode) refers to bmm150.o(i.bmm150_get_regs) for bmm150_get_regs
    bmm150.o(i.suspend_to_sleep_mode) refers to bmm150.o(i.bmm150_set_regs) for bmm150_set_regs
    bmi160.o(i.bmi160_aux_init) refers to bmi160.o(i.bmi160_set_regs) for bmi160_set_regs
    bmi160.o(i.bmi160_aux_init) refers to bmi160.o(i.bmi160_get_regs) for bmi160_get_regs
    bmi160.o(i.bmi160_aux_read) refers to bmi160.o(i.bmi160_set_regs) for bmi160_set_regs
    bmi160.o(i.bmi160_aux_read) refers to bmi160.o(i.bmi160_get_regs) for bmi160_get_regs
    bmi160.o(i.bmi160_aux_write) refers to bmi160.o(i.bmi160_set_regs) for bmi160_set_regs
    bmi160.o(i.bmi160_config_aux_mode) refers to bmi160.o(i.bmi160_get_regs) for bmi160_get_regs
    bmi160.o(i.bmi160_config_aux_mode) refers to bmi160.o(i.bmi160_set_regs) for bmi160_set_regs
    bmi160.o(i.bmi160_extract_accel) refers to bmi160.o(i.unpack_accel_data) for unpack_accel_data
    bmi160.o(i.bmi160_extract_gyro) refers to bmi160.o(i.unpack_gyro_data) for unpack_gyro_data
    bmi160.o(i.bmi160_get_fifo_data) refers to bmi160.o(i.bmi160_get_regs) for bmi160_get_regs
    bmi160.o(i.bmi160_get_int_status) refers to bmi160.o(i.bmi160_get_regs) for bmi160_get_regs
    bmi160.o(i.bmi160_get_offsets) refers to bmi160.o(i.bmi160_get_regs) for bmi160_get_regs
    bmi160.o(i.bmi160_get_power_mode) refers to bmi160.o(i.bmi160_get_regs) for bmi160_get_regs
    bmi160.o(i.bmi160_get_sens_conf) refers to bmi160.o(i.bmi160_get_regs) for bmi160_get_regs
    bmi160.o(i.bmi160_get_sensor_data) refers to bmi160.o(i.bmi160_get_regs) for bmi160_get_regs
    bmi160.o(i.bmi160_init) refers to bmi160.o(i.bmi160_get_regs) for bmi160_get_regs
    bmi160.o(i.bmi160_init) refers to bmi160.o(i.bmi160_set_regs) for bmi160_set_regs
    bmi160.o(i.bmi160_perform_self_test) refers to bmi160.o(i.bmi160_set_sens_conf) for bmi160_set_sens_conf
    bmi160.o(i.bmi160_perform_self_test) refers to bmi160.o(i.bmi160_set_regs) for bmi160_set_regs
    bmi160.o(i.bmi160_perform_self_test) refers to bmi160.o(i.bmi160_get_sensor_data) for bmi160_get_sensor_data
    bmi160.o(i.bmi160_perform_self_test) refers to bmi160.o(i.bmi160_set_power_mode) for bmi160_set_power_mode
    bmi160.o(i.bmi160_perform_self_test) refers to bmi160.o(i.bmi160_get_regs) for bmi160_get_regs
    bmi160.o(i.bmi160_read_aux_data_auto_mode) refers to bmi160.o(i.bmi160_get_regs) for bmi160_get_regs
    bmi160.o(i.bmi160_read_step_counter) refers to bmi160.o(i.bmi160_get_regs) for bmi160_get_regs
    bmi160.o(i.bmi160_set_aux_auto_mode) refers to bmi160.o(i.bmi160_set_regs) for bmi160_set_regs
    bmi160.o(i.bmi160_set_aux_auto_mode) refers to bmi160.o(i.bmi160_get_regs) for bmi160_get_regs
    bmi160.o(i.bmi160_set_fifo_config) refers to bmi160.o(i.bmi160_get_regs) for bmi160_get_regs
    bmi160.o(i.bmi160_set_fifo_config) refers to bmi160.o(i.bmi160_set_regs) for bmi160_set_regs
    bmi160.o(i.bmi160_set_fifo_down) refers to bmi160.o(i.bmi160_get_regs) for bmi160_get_regs
    bmi160.o(i.bmi160_set_fifo_down) refers to bmi160.o(i.bmi160_set_regs) for bmi160_set_regs
    bmi160.o(i.bmi160_set_fifo_flush) refers to bmi160.o(i.bmi160_set_regs) for bmi160_set_regs
    bmi160.o(i.bmi160_set_fifo_wm) refers to bmi160.o(i.bmi160_set_regs) for bmi160_set_regs
    bmi160.o(i.bmi160_set_int_config) refers to bmi160.o(i.bmi160_get_regs) for bmi160_get_regs
    bmi160.o(i.bmi160_set_int_config) refers to bmi160.o(i.bmi160_set_regs) for bmi160_set_regs
    bmi160.o(i.bmi160_set_int_config) refers to bmi160.o(i.set_intr_pin_config) for set_intr_pin_config
    bmi160.o(i.bmi160_set_int_config) refers to bmi160.o(i.map_feature_interrupt) for map_feature_interrupt
    bmi160.o(i.bmi160_set_int_config) refers to bmi160.o(i.map_hardware_interrupt) for map_hardware_interrupt
    bmi160.o(i.bmi160_set_offsets) refers to bmi160.o(i.bmi160_set_regs) for bmi160_set_regs
    bmi160.o(i.bmi160_set_power_mode) refers to bmi160.o(i.bmi160_get_regs) for bmi160_get_regs
    bmi160.o(i.bmi160_set_power_mode) refers to bmi160.o(i.bmi160_set_regs) for bmi160_set_regs
    bmi160.o(i.bmi160_set_sens_conf) refers to bmi160.o(i.bmi160_get_regs) for bmi160_get_regs
    bmi160.o(i.bmi160_set_sens_conf) refers to bmi160.o(i.bmi160_set_regs) for bmi160_set_regs
    bmi160.o(i.bmi160_set_sens_conf) refers to bmi160.o(i.bmi160_set_power_mode) for bmi160_set_power_mode
    bmi160.o(i.bmi160_set_step_counter) refers to bmi160.o(i.bmi160_get_regs) for bmi160_get_regs
    bmi160.o(i.bmi160_set_step_counter) refers to bmi160.o(i.bmi160_set_regs) for bmi160_set_regs
    bmi160.o(i.bmi160_soft_reset) refers to bmi160.o(i.bmi160_set_regs) for bmi160_set_regs
    bmi160.o(i.bmi160_soft_reset) refers to bmi160.o(i.bmi160_get_regs) for bmi160_get_regs
    bmi160.o(i.bmi160_start_foc) refers to bmi160.o(i.bmi160_get_regs) for bmi160_get_regs
    bmi160.o(i.bmi160_start_foc) refers to bmi160.o(i.bmi160_set_regs) for bmi160_set_regs
    bmi160.o(i.bmi160_update_nvm) refers to bmi160.o(i.bmi160_get_regs) for bmi160_get_regs
    bmi160.o(i.bmi160_update_nvm) refers to bmi160.o(i.bmi160_set_regs) for bmi160_set_regs
    bmi160.o(i.map_feature_interrupt) refers to bmi160.o(i.bmi160_get_regs) for bmi160_get_regs
    bmi160.o(i.map_feature_interrupt) refers to bmi160.o(i.bmi160_set_regs) for bmi160_set_regs
    bmi160.o(i.map_feature_interrupt) refers to bmi160.o(.constdata) for .constdata
    bmi160.o(i.map_hardware_interrupt) refers to bmi160.o(i.bmi160_get_regs) for bmi160_get_regs
    bmi160.o(i.map_hardware_interrupt) refers to bmi160.o(i.bmi160_set_regs) for bmi160_set_regs
    bmi160.o(i.map_hardware_interrupt) refers to bmi160.o(.constdata) for .constdata
    bmi160.o(i.set_intr_pin_config) refers to bmi160.o(i.bmi160_get_regs) for bmi160_get_regs
    bmi160.o(i.set_intr_pin_config) refers to bmi160.o(i.bmi160_set_regs) for bmi160_set_regs
    sys_queue.o(i.queue_in) refers to memseta.o(.text) for __aeabi_memclr4
    sys_queue.o(i.queue_in) refers to memcpya.o(.text) for __aeabi_memcpy
    sys_queue.o(i.queue_out) refers to memcpya.o(.text) for __aeabi_memcpy
    nrf_flash.o(i.fstorage_evt_handler) refers to nrf_log_frontend.o(i.nrf_log_frontend_std_0) for nrf_log_frontend_std_0
    nrf_flash.o(i.fstorage_evt_handler) refers to nrf_log_frontend.o(i.nrf_log_frontend_std_2) for nrf_log_frontend_std_2
    nrf_flash.o(i.fstorage_evt_handler) refers to nrf_log_frontend.o(log_const_data) for m_nrf_log_app_logs_data_const
    nrf_flash.o(i.fstorage_evt_handler) refers to nrf_flash.o(.conststring) for .conststring
    nrf_flash.o(i.nrf_flash_erase) refers to nrf_fstorage.o(i.nrf_fstorage_erase) for nrf_fstorage_erase
    nrf_flash.o(i.nrf_flash_erase) refers to nrf_log_frontend.o(i.nrf_log_frontend_std_1) for nrf_log_frontend_std_1
    nrf_flash.o(i.nrf_flash_erase) refers to nrf_fstorage.o(i.nrf_fstorage_is_busy) for nrf_fstorage_is_busy
    nrf_flash.o(i.nrf_flash_erase) refers to nrf_flash.o(fs_data) for fs_data
    nrf_flash.o(i.nrf_flash_erase) refers to nrf_log_frontend.o(log_const_data) for m_nrf_log_app_logs_data_const
    nrf_flash.o(i.nrf_flash_erase_test) refers to nrf_fstorage.o(i.nrf_fstorage_erase) for nrf_fstorage_erase
    nrf_flash.o(i.nrf_flash_erase_test) refers to nrf_log_frontend.o(i.nrf_log_frontend_std_1) for nrf_log_frontend_std_1
    nrf_flash.o(i.nrf_flash_erase_test) refers to nrf_fstorage.o(i.nrf_fstorage_is_busy) for nrf_fstorage_is_busy
    nrf_flash.o(i.nrf_flash_erase_test) refers to nrf_fstorage.o(i.nrf_fstorage_read) for nrf_fstorage_read
    nrf_flash.o(i.nrf_flash_erase_test) refers to nrf_log_frontend.o(i.nrf_log_frontend_std_0) for nrf_log_frontend_std_0
    nrf_flash.o(i.nrf_flash_erase_test) refers to nrf_flash.o(fs_data) for fs_data
    nrf_flash.o(i.nrf_flash_erase_test) refers to nrf_log_frontend.o(log_const_data) for m_nrf_log_app_logs_data_const
    nrf_flash.o(i.nrf_flash_erase_test) refers to nrf_flash.o(i.nrf_flash_erase) for i.nrf_flash_erase
    nrf_flash.o(i.nrf_flash_erase_test) refers to nrf_flash.o(i.nrf_flash_read) for i.nrf_flash_read
    nrf_flash.o(i.nrf_flash_init) refers to nrf_fstorage.o(i.nrf_fstorage_init) for nrf_fstorage_init
    nrf_flash.o(i.nrf_flash_init) refers to nrf_log_frontend.o(i.nrf_log_frontend_std_0) for nrf_log_frontend_std_0
    nrf_flash.o(i.nrf_flash_init) refers to nrf_log_frontend.o(i.nrf_log_frontend_std_1) for nrf_log_frontend_std_1
    nrf_flash.o(i.nrf_flash_init) refers to nrf_fstorage_sd.o(.constdata) for nrf_fstorage_sd
    nrf_flash.o(i.nrf_flash_init) refers to nrf_flash.o(fs_data) for fs_data
    nrf_flash.o(i.nrf_flash_init) refers to nrf_log_frontend.o(log_const_data) for m_nrf_log_app_logs_data_const
    nrf_flash.o(i.nrf_flash_read) refers to nrf_fstorage.o(i.nrf_fstorage_read) for nrf_fstorage_read
    nrf_flash.o(i.nrf_flash_read) refers to nrf_log_frontend.o(i.nrf_log_frontend_std_1) for nrf_log_frontend_std_1
    nrf_flash.o(i.nrf_flash_read) refers to nrf_flash.o(fs_data) for fs_data
    nrf_flash.o(i.nrf_flash_read) refers to nrf_log_frontend.o(log_const_data) for m_nrf_log_app_logs_data_const
    nrf_flash.o(i.nrf_flash_read_test) refers to nrf_fstorage.o(i.nrf_fstorage_read) for nrf_fstorage_read
    nrf_flash.o(i.nrf_flash_read_test) refers to nrf_log_frontend.o(i.nrf_log_frontend_std_1) for nrf_log_frontend_std_1
    nrf_flash.o(i.nrf_flash_read_test) refers to nrf_log_frontend.o(i.nrf_log_frontend_std_2) for nrf_log_frontend_std_2
    nrf_flash.o(i.nrf_flash_read_test) refers to nrf_log_frontend.o(i.nrf_log_frontend_std_5) for nrf_log_frontend_std_5
    nrf_flash.o(i.nrf_flash_read_test) refers to nrf_log_frontend.o(log_const_data) for m_nrf_log_app_logs_data_const
    nrf_flash.o(i.nrf_flash_read_test) refers to nrf_flash.o(fs_data) for fs_data
    nrf_flash.o(i.nrf_flash_read_test) refers to nrf_flash.o(i.nrf_flash_read) for i.nrf_flash_read
    nrf_flash.o(i.nrf_flash_write) refers to nrf_fstorage.o(i.nrf_fstorage_write) for nrf_fstorage_write
    nrf_flash.o(i.nrf_flash_write) refers to nrf_log_frontend.o(i.nrf_log_frontend_std_1) for nrf_log_frontend_std_1
    nrf_flash.o(i.nrf_flash_write) refers to nrf_fstorage.o(i.nrf_fstorage_is_busy) for nrf_fstorage_is_busy
    nrf_flash.o(i.nrf_flash_write) refers to nrf_flash.o(fs_data) for fs_data
    nrf_flash.o(i.nrf_flash_write) refers to nrf_log_frontend.o(log_const_data) for m_nrf_log_app_logs_data_const
    nrf_flash.o(i.nrf_flash_write_test) refers to nrf_fstorage.o(i.nrf_fstorage_write) for nrf_fstorage_write
    nrf_flash.o(i.nrf_flash_write_test) refers to nrf_log_frontend.o(i.nrf_log_frontend_std_1) for nrf_log_frontend_std_1
    nrf_flash.o(i.nrf_flash_write_test) refers to nrf_log_frontend.o(i.nrf_log_frontend_std_2) for nrf_log_frontend_std_2
    nrf_flash.o(i.nrf_flash_write_test) refers to nrf_fstorage.o(i.nrf_fstorage_is_busy) for nrf_fstorage_is_busy
    nrf_flash.o(i.nrf_flash_write_test) refers to nrf_log_frontend.o(log_const_data) for m_nrf_log_app_logs_data_const
    nrf_flash.o(i.nrf_flash_write_test) refers to nrf_flash.o(.data) for .data
    nrf_flash.o(i.nrf_flash_write_test) refers to nrf_flash.o(fs_data) for fs_data
    nrf_flash.o(i.nrf_flash_write_test) refers to nrf_flash.o(i.nrf_flash_write) for i.nrf_flash_write
    nrf_flash.o(fs_data) refers to nrf_flash.o(i.fstorage_evt_handler) for fstorage_evt_handler
    boards.o(i.bsp_board_button_idx_to_pin) refers to boards.o(.constdata) for .constdata
    boards.o(i.bsp_board_button_state_get) refers to boards.o(.constdata) for .constdata
    boards.o(i.bsp_board_init) refers to boards.o(.constdata) for .constdata
    boards.o(i.bsp_board_led_idx_to_pin) refers to boards.o(.constdata) for .constdata
    boards.o(i.bsp_board_led_invert) refers to boards.o(.constdata) for .constdata
    boards.o(i.bsp_board_led_off) refers to boards.o(.constdata) for .constdata
    boards.o(i.bsp_board_led_on) refers to boards.o(.constdata) for .constdata
    boards.o(i.bsp_board_led_state_get) refers to boards.o(.constdata) for .constdata
    boards.o(i.bsp_board_leds_off) refers to boards.o(.constdata) for .constdata
    boards.o(i.bsp_board_leds_on) refers to boards.o(.constdata) for .constdata
    bsp.o(i.alert_timer_handler) refers to boards.o(i.bsp_board_led_invert) for bsp_board_led_invert
    bsp.o(i.bsp_button_event_handler) refers to boards.o(i.bsp_board_pin_to_button_idx) for bsp_board_pin_to_button_idx
    bsp.o(i.bsp_button_event_handler) refers to app_timer2.o(i.app_timer_start) for app_timer_start
    bsp.o(i.bsp_button_event_handler) refers to app_timer2.o(i.app_timer_stop) for app_timer_stop
    bsp.o(i.bsp_button_event_handler) refers to bsp.o(.constdata) for .constdata
    bsp.o(i.bsp_button_event_handler) refers to bsp.o(.data) for .data
    bsp.o(i.bsp_button_event_handler) refers to bsp.o(.bss) for .bss
    bsp.o(i.bsp_button_is_pressed) refers to boards.o(i.bsp_board_button_state_get) for bsp_board_button_state_get
    bsp.o(i.bsp_buttons_disable) refers to app_button.o(i.app_button_disable) for app_button_disable
    bsp.o(i.bsp_buttons_enable) refers to app_button.o(i.app_button_enable) for app_button_enable
    bsp.o(i.bsp_event_to_button_action_assign) refers to bsp.o(.bss) for .bss
    bsp.o(i.bsp_indication_set) refers to bsp.o(i.bsp_led_indication) for bsp_led_indication
    bsp.o(i.bsp_indication_set) refers to bsp.o(.data) for .data
    bsp.o(i.bsp_init) refers to app_button.o(i.app_button_init) for app_button_init
    bsp.o(i.bsp_init) refers to app_button.o(i.app_button_enable) for app_button_enable
    bsp.o(i.bsp_init) refers to app_timer2.o(i.app_timer_create) for app_timer_create
    bsp.o(i.bsp_init) refers to boards.o(i.bsp_board_init) for bsp_board_init
    bsp.o(i.bsp_init) refers to bsp.o(.data) for .data
    bsp.o(i.bsp_init) refers to bsp.o(.bss) for .bss
    bsp.o(i.bsp_init) refers to bsp.o(.constdata) for .constdata
    bsp.o(i.bsp_init) refers to bsp.o(i.button_timer_handler) for button_timer_handler
    bsp.o(i.bsp_init) refers to bsp.o(i.leds_timer_handler) for leds_timer_handler
    bsp.o(i.bsp_init) refers to bsp.o(i.alert_timer_handler) for alert_timer_handler
    bsp.o(i.bsp_led_indication) refers to boards.o(i.bsp_board_led_off) for bsp_board_led_off
    bsp.o(i.bsp_led_indication) refers to boards.o(i.bsp_board_leds_off) for bsp_board_leds_off
    bsp.o(i.bsp_led_indication) refers to app_timer2.o(i.app_timer_stop) for app_timer_stop
    bsp.o(i.bsp_led_indication) refers to boards.o(i.bsp_board_led_state_get) for bsp_board_led_state_get
    bsp.o(i.bsp_led_indication) refers to boards.o(i.bsp_board_led_on) for bsp_board_led_on
    bsp.o(i.bsp_led_indication) refers to uldiv.o(.text) for __aeabi_uldivmod
    bsp.o(i.bsp_led_indication) refers to app_timer2.o(i.app_timer_start) for app_timer_start
    bsp.o(i.bsp_led_indication) refers to boards.o(i.bsp_board_led_invert) for bsp_board_led_invert
    bsp.o(i.bsp_led_indication) refers to boards.o(i.bsp_board_leds_on) for bsp_board_leds_on
    bsp.o(i.bsp_led_indication) refers to bsp.o(.data) for .data
    bsp.o(i.bsp_led_indication) refers to bsp.o(.constdata) for .constdata
    bsp.o(i.bsp_wakeup_button_disable) refers to boards.o(i.bsp_board_button_idx_to_pin) for bsp_board_button_idx_to_pin
    bsp.o(i.bsp_wakeup_button_enable) refers to boards.o(i.bsp_board_button_idx_to_pin) for bsp_board_button_idx_to_pin
    bsp.o(i.button_timer_handler) refers to boards.o(i.bsp_board_pin_to_button_idx) for bsp_board_pin_to_button_idx
    bsp.o(i.button_timer_handler) refers to bsp.o(.bss) for .bss
    bsp.o(i.button_timer_handler) refers to bsp.o(.data) for .data
    bsp.o(i.leds_timer_handler) refers to bsp.o(i.bsp_led_indication) for bsp_led_indication
    bsp.o(i.leds_timer_handler) refers to bsp.o(.data) for .data
    bsp.o(.constdata) refers to bsp.o(.data) for m_bsp_leds_tmr_data
    bsp.o(.constdata) refers to bsp.o(.data) for m_bsp_alert_tmr_data
    bsp.o(.constdata) refers to bsp.o(.data) for m_bsp_button_tmr_data
    bsp.o(.constdata) refers to bsp.o(i.bsp_button_event_handler) for bsp_button_event_handler
    bsp_btn_ble.o(i.ble_evt_handler) refers to bsp.o(i.bsp_event_to_button_action_assign) for bsp_event_to_button_action_assign
    bsp_btn_ble.o(i.ble_evt_handler) refers to bsp_btn_ble.o(.data) for .data
    bsp_btn_ble.o(i.bsp_btn_ble_init) refers to bsp.o(i.bsp_button_is_pressed) for bsp_button_is_pressed
    bsp_btn_ble.o(i.bsp_btn_ble_init) refers to bsp.o(i.bsp_event_to_button_action_assign) for bsp_event_to_button_action_assign
    bsp_btn_ble.o(i.bsp_btn_ble_init) refers to bsp_btn_ble.o(.data) for .data
    bsp_btn_ble.o(i.bsp_btn_ble_sleep_mode_prepare) refers to bsp.o(i.bsp_wakeup_button_enable) for bsp_wakeup_button_enable
    bsp_btn_ble.o(sdh_ble_observers1) refers to bsp_btn_ble.o(i.ble_evt_handler) for ble_evt_handler
    utf.o(i.utf8RuneCount) refers to utf.o(i.utf8DecodeRune) for utf8DecodeRune
    utf.o(i.utf8UTF16Count) refers to utf.o(i.utf8DecodeRune) for utf8DecodeRune
    ble_advdata.o(i.ble_advdata_appearance_find) refers to ble_advdata.o(i.ble_advdata_search) for ble_advdata_search
    ble_advdata.o(i.ble_advdata_encode) refers to ble_advdata.o(i.uuid_list_encode) for uuid_list_encode
    ble_advdata.o(i.ble_advdata_encode) refers to memcpya.o(.text) for __aeabi_memcpy
    ble_advdata.o(i.ble_advdata_name_find) refers to ble_advdata.o(i.ble_advdata_search) for ble_advdata_search
    ble_advdata.o(i.ble_advdata_name_find) refers to strlen.o(.text) for strlen
    ble_advdata.o(i.ble_advdata_name_find) refers to memcmp.o(.text) for memcmp
    ble_advdata.o(i.ble_advdata_parse) refers to ble_advdata.o(i.ble_advdata_search) for ble_advdata_search
    ble_advdata.o(i.ble_advdata_short_name_find) refers to ble_advdata.o(i.ble_advdata_search) for ble_advdata_search
    ble_advdata.o(i.ble_advdata_short_name_find) refers to strlen.o(.text) for strlen
    ble_advdata.o(i.ble_advdata_short_name_find) refers to memcmp.o(.text) for memcmp
    ble_advdata.o(i.ble_advdata_uuid_find) refers to memcmp.o(.text) for memcmp
    ble_advertising.o(i.ble_advertising_advdata_update) refers to ble_advdata.o(i.ble_advdata_encode) for ble_advdata_encode
    ble_advertising.o(i.ble_advertising_init) refers to ble_advertising.o(i.__ARM_common_memclr4_7) for __ARM_common_memclr4_7
    ble_advertising.o(i.ble_advertising_init) refers to ble_advdata.o(i.ble_advdata_encode) for ble_advdata_encode
    ble_advertising.o(i.ble_advertising_on_ble_evt) refers to ble_advertising.o(i.ble_advertising_start) for ble_advertising_start
    ble_advertising.o(i.ble_advertising_restart_without_whitelist) refers to ble_advdata.o(i.ble_advdata_parse) for ble_advdata_parse
    ble_advertising.o(i.ble_advertising_restart_without_whitelist) refers to ble_advertising.o(i.ble_advertising_start) for ble_advertising_start
    ble_advertising.o(i.ble_advertising_start) refers to ble_advertising.o(i.__ARM_common_memclr4_7) for __ARM_common_memclr4_7
    ble_advertising.o(i.ble_advertising_start) refers to ble_advdata.o(i.ble_advdata_parse) for ble_advdata_parse
    ble_conn_params.o(i.ble_conn_params_change_conn_params) refers to ble_conn_params.o(.bss) for .bss
    ble_conn_params.o(i.ble_conn_params_change_conn_params) refers to ble_conn_params.o(.data) for .data
    ble_conn_params.o(i.ble_conn_params_init) refers to app_timer2.o(i.app_timer_create) for app_timer_create
    ble_conn_params.o(i.ble_conn_params_init) refers to ble_conn_params.o(.bss) for .bss
    ble_conn_params.o(i.ble_conn_params_init) refers to ble_conn_params.o(.data) for .data
    ble_conn_params.o(i.ble_conn_params_init) refers to ble_conn_params.o(i.update_timeout_handler) for update_timeout_handler
    ble_conn_params.o(i.ble_conn_params_stop) refers to app_timer2.o(i.app_timer_stop) for app_timer_stop
    ble_conn_params.o(i.ble_conn_params_stop) refers to ble_conn_params.o(.bss) for .bss
    ble_conn_params.o(i.ble_evt_handler) refers to ble_srv_common.o(i.ble_srv_is_notification_enabled) for ble_srv_is_notification_enabled
    ble_conn_params.o(i.ble_evt_handler) refers to app_timer2.o(i.app_timer_start) for app_timer_start
    ble_conn_params.o(i.ble_evt_handler) refers to app_timer2.o(i.app_timer_stop) for app_timer_stop
    ble_conn_params.o(i.ble_evt_handler) refers to ble_conn_params.o(.bss) for .bss
    ble_conn_params.o(i.ble_evt_handler) refers to ble_conn_params.o(.data) for .data
    ble_conn_params.o(i.update_timeout_handler) refers to ble_conn_params.o(.bss) for .bss
    ble_conn_params.o(sdh_ble_observers1) refers to ble_conn_params.o(i.ble_evt_handler) for ble_evt_handler
    ble_conn_state.o(i.active_flag_count) refers to nrf_atflags.o(i.nrf_atflags_get) for nrf_atflags_get
    ble_conn_state.o(i.bcs_internal_state_reset) refers to memseta.o(.text) for __aeabi_memclr4
    ble_conn_state.o(i.bcs_internal_state_reset) refers to ble_conn_state.o(.bss) for .bss
    ble_conn_state.o(i.ble_conn_state_central_conn_count) refers to nrf_atomic.o(i.nrf_atomic_u32_and) for nrf_atomic_u32_and
    ble_conn_state.o(i.ble_conn_state_central_conn_count) refers to nrf_atflags.o(i.nrf_atflags_get) for nrf_atflags_get
    ble_conn_state.o(i.ble_conn_state_central_conn_count) refers to ble_conn_state.o(.bss) for .bss
    ble_conn_state.o(i.ble_conn_state_central_handles) refers to nrf_atomic.o(i.nrf_atomic_u32_and) for nrf_atomic_u32_and
    ble_conn_state.o(i.ble_conn_state_central_handles) refers to ble_conn_state.o(i.conn_handle_list_get) for conn_handle_list_get
    ble_conn_state.o(i.ble_conn_state_central_handles) refers to ble_conn_state.o(.bss) for .bss
    ble_conn_state.o(i.ble_conn_state_conn_count) refers to nrf_atflags.o(i.nrf_atflags_get) for nrf_atflags_get
    ble_conn_state.o(i.ble_conn_state_conn_count) refers to ble_conn_state.o(.bss) for .bss
    ble_conn_state.o(i.ble_conn_state_conn_handles) refers to ble_conn_state.o(i.conn_handle_list_get) for conn_handle_list_get
    ble_conn_state.o(i.ble_conn_state_conn_handles) refers to ble_conn_state.o(.bss) for .bss
    ble_conn_state.o(i.ble_conn_state_conn_idx) refers to nrf_atflags.o(i.nrf_atflags_get) for nrf_atflags_get
    ble_conn_state.o(i.ble_conn_state_conn_idx) refers to ble_conn_state.o(.bss) for .bss
    ble_conn_state.o(i.ble_conn_state_encrypted) refers to nrf_atflags.o(i.nrf_atflags_get) for nrf_atflags_get
    ble_conn_state.o(i.ble_conn_state_encrypted) refers to ble_conn_state.o(.bss) for .bss
    ble_conn_state.o(i.ble_conn_state_for_each_connected) refers to nrf_atflags.o(i.nrf_atflags_get) for nrf_atflags_get
    ble_conn_state.o(i.ble_conn_state_for_each_connected) refers to ble_conn_state.o(.bss) for .bss
    ble_conn_state.o(i.ble_conn_state_for_each_set_user_flag) refers to nrf_atflags.o(i.nrf_atflags_get) for nrf_atflags_get
    ble_conn_state.o(i.ble_conn_state_for_each_set_user_flag) refers to ble_conn_state.o(.bss) for .bss
    ble_conn_state.o(i.ble_conn_state_init) refers to memseta.o(.text) for __aeabi_memclr4
    ble_conn_state.o(i.ble_conn_state_init) refers to ble_conn_state.o(.bss) for .bss
    ble_conn_state.o(i.ble_conn_state_lesc) refers to nrf_atflags.o(i.nrf_atflags_get) for nrf_atflags_get
    ble_conn_state.o(i.ble_conn_state_lesc) refers to ble_conn_state.o(.bss) for .bss
    ble_conn_state.o(i.ble_conn_state_mitm_protected) refers to nrf_atflags.o(i.nrf_atflags_get) for nrf_atflags_get
    ble_conn_state.o(i.ble_conn_state_mitm_protected) refers to ble_conn_state.o(.bss) for .bss
    ble_conn_state.o(i.ble_conn_state_periph_handles) refers to nrf_atomic.o(i.nrf_atomic_u32_and) for nrf_atomic_u32_and
    ble_conn_state.o(i.ble_conn_state_periph_handles) refers to ble_conn_state.o(i.conn_handle_list_get) for conn_handle_list_get
    ble_conn_state.o(i.ble_conn_state_periph_handles) refers to ble_conn_state.o(.bss) for .bss
    ble_conn_state.o(i.ble_conn_state_peripheral_conn_count) refers to nrf_atomic.o(i.nrf_atomic_u32_and) for nrf_atomic_u32_and
    ble_conn_state.o(i.ble_conn_state_peripheral_conn_count) refers to nrf_atflags.o(i.nrf_atflags_get) for nrf_atflags_get
    ble_conn_state.o(i.ble_conn_state_peripheral_conn_count) refers to ble_conn_state.o(.bss) for .bss
    ble_conn_state.o(i.ble_conn_state_role) refers to nrf_atflags.o(i.nrf_atflags_get) for nrf_atflags_get
    ble_conn_state.o(i.ble_conn_state_role) refers to ble_conn_state.o(.bss) for .bss
    ble_conn_state.o(i.ble_conn_state_status) refers to nrf_atflags.o(i.nrf_atflags_get) for nrf_atflags_get
    ble_conn_state.o(i.ble_conn_state_status) refers to ble_conn_state.o(.bss) for .bss
    ble_conn_state.o(i.ble_conn_state_user_flag_acquire) refers to nrf_atflags.o(i.nrf_atflags_find_and_set_flag) for nrf_atflags_find_and_set_flag
    ble_conn_state.o(i.ble_conn_state_user_flag_acquire) refers to ble_conn_state.o(.bss) for .bss
    ble_conn_state.o(i.ble_conn_state_user_flag_get) refers to nrf_atflags.o(i.nrf_atflags_get) for nrf_atflags_get
    ble_conn_state.o(i.ble_conn_state_user_flag_get) refers to ble_conn_state.o(.bss) for .bss
    ble_conn_state.o(i.ble_conn_state_user_flag_set) refers to nrf_atflags.o(i.nrf_atflags_get) for nrf_atflags_get
    ble_conn_state.o(i.ble_conn_state_user_flag_set) refers to nrf_atflags.o(i.nrf_atflags_set) for nrf_atflags_set
    ble_conn_state.o(i.ble_conn_state_user_flag_set) refers to nrf_atflags.o(i.nrf_atflags_clear) for nrf_atflags_clear
    ble_conn_state.o(i.ble_conn_state_user_flag_set) refers to ble_conn_state.o(.bss) for .bss
    ble_conn_state.o(i.ble_conn_state_valid) refers to nrf_atflags.o(i.nrf_atflags_get) for nrf_atflags_get
    ble_conn_state.o(i.ble_conn_state_valid) refers to ble_conn_state.o(.bss) for .bss
    ble_conn_state.o(i.ble_evt_handler) refers to nrf_atflags.o(i.nrf_atflags_set) for nrf_atflags_set
    ble_conn_state.o(i.ble_evt_handler) refers to nrf_atomic.o(i.nrf_atomic_u32_and) for nrf_atomic_u32_and
    ble_conn_state.o(i.ble_evt_handler) refers to ble_conn_state.o(i.conn_handle_list_get) for conn_handle_list_get
    ble_conn_state.o(i.ble_evt_handler) refers to nrf_atflags.o(i.nrf_atflags_clear) for nrf_atflags_clear
    ble_conn_state.o(i.ble_evt_handler) refers to app_error_handler_keil.o(.emb_text) for app_error_handler
    ble_conn_state.o(i.ble_evt_handler) refers to ble_conn_state.o(.bss) for .bss
    ble_conn_state.o(i.conn_handle_list_get) refers to nrf_atflags.o(i.nrf_atflags_get) for nrf_atflags_get
    ble_conn_state.o(sdh_ble_observers0) refers to ble_conn_state.o(i.ble_evt_handler) for ble_evt_handler
    ble_link_ctx_manager.o(i.blcm_link_ctx_get) refers to ble_conn_state.o(i.ble_conn_state_conn_idx) for ble_conn_state_conn_idx
    ble_srv_common.o(i.ble_srv_ascii_to_utf8) refers to strlen.o(.text) for strlen
    ble_srv_common.o(i.characteristic_add) refers to ble_srv_common.o(i.set_security_req) for set_security_req
    ble_srv_common.o(i.descriptor_add) refers to ble_srv_common.o(i.set_security_req) for set_security_req
    nrf_ble_gatt.o(i.nrf_ble_gatt_on_ble_evt) refers to nrf_log_frontend.o(i.nrf_log_frontend_std_2) for nrf_log_frontend_std_2
    nrf_ble_gatt.o(i.nrf_ble_gatt_on_ble_evt) refers to nrf_log_frontend.o(i.nrf_log_frontend_std_3) for nrf_log_frontend_std_3
    nrf_ble_gatt.o(i.nrf_ble_gatt_on_ble_evt) refers to nrf_strerror.o(i.nrf_strerror_get) for nrf_strerror_get
    nrf_ble_gatt.o(i.nrf_ble_gatt_on_ble_evt) refers to nrf_log_frontend.o(i.nrf_log_frontend_std_1) for nrf_log_frontend_std_1
    nrf_ble_gatt.o(i.nrf_ble_gatt_on_ble_evt) refers to nrf_ble_gatt.o(log_const_data) for log_const_data
    nrf_ble_gatt.o(i.nrf_ble_gatt_on_ble_evt) refers to nrf_ble_gatt.o(.constdata) for .constdata
    nrf_ble_gatt.o(i.nrf_ble_gatt_on_ble_evt) refers to nrf_ble_gatt.o(.conststring) for .conststring
    nrf_ble_gatt.o(log_const_data) refers to nrf_ble_gatt.o(.conststrlit) for .conststrlit
    ble_nus.o(i.ble_nus_data_send) refers to ble_link_ctx_manager.o(i.blcm_link_ctx_get) for blcm_link_ctx_get
    ble_nus.o(i.ble_nus_init) refers to ble_srv_common.o(i.characteristic_add) for characteristic_add
    ble_nus.o(i.ble_nus_init) refers to ble_nus.o(.constdata) for .constdata
    ble_nus.o(i.ble_nus_on_ble_evt) refers to ble_link_ctx_manager.o(i.blcm_link_ctx_get) for blcm_link_ctx_get
    ble_nus.o(i.ble_nus_on_ble_evt) refers to ble_srv_common.o(i.ble_srv_is_notification_enabled) for ble_srv_is_notification_enabled
    ble_nus.o(log_const_data) refers to ble_nus.o(.conststrlit) for .conststrlit
    nrf_drv_clock.o(i.clock_irq_handler) refers to nrf_drv_clock.o(.bss) for .bss
    nrf_drv_clock.o(i.nrf_drv_clock_hfclk_is_running) refers to nrf_sdh.o(i.nrf_sdh_is_enabled) for nrf_sdh_is_enabled
    nrf_drv_clock.o(i.nrf_drv_clock_hfclk_release) refers to app_util_platform.o(i.app_util_critical_region_enter) for app_util_critical_region_enter
    nrf_drv_clock.o(i.nrf_drv_clock_hfclk_release) refers to nrf_sdh.o(i.nrf_sdh_is_enabled) for nrf_sdh_is_enabled
    nrf_drv_clock.o(i.nrf_drv_clock_hfclk_release) refers to nrfx_clock.o(i.nrfx_clock_hfclk_stop) for nrfx_clock_hfclk_stop
    nrf_drv_clock.o(i.nrf_drv_clock_hfclk_release) refers to app_util_platform.o(i.app_util_critical_region_exit) for app_util_critical_region_exit
    nrf_drv_clock.o(i.nrf_drv_clock_hfclk_release) refers to nrf_drv_clock.o(.bss) for .bss
    nrf_drv_clock.o(i.nrf_drv_clock_hfclk_request) refers to app_util_platform.o(i.app_util_critical_region_enter) for app_util_critical_region_enter
    nrf_drv_clock.o(i.nrf_drv_clock_hfclk_request) refers to nrf_sdh.o(i.nrf_sdh_is_enabled) for nrf_sdh_is_enabled
    nrf_drv_clock.o(i.nrf_drv_clock_hfclk_request) refers to nrfx_clock.o(i.nrfx_clock_hfclk_start) for nrfx_clock_hfclk_start
    nrf_drv_clock.o(i.nrf_drv_clock_hfclk_request) refers to app_util_platform.o(i.app_util_critical_region_exit) for app_util_critical_region_exit
    nrf_drv_clock.o(i.nrf_drv_clock_hfclk_request) refers to nrf_drv_clock.o(.bss) for .bss
    nrf_drv_clock.o(i.nrf_drv_clock_init) refers to nrfx_clock.o(i.nrfx_clock_init) for nrfx_clock_init
    nrf_drv_clock.o(i.nrf_drv_clock_init) refers to nrf_sdh.o(i.nrf_sdh_is_enabled) for nrf_sdh_is_enabled
    nrf_drv_clock.o(i.nrf_drv_clock_init) refers to nrfx_clock.o(i.nrfx_clock_enable) for nrfx_clock_enable
    nrf_drv_clock.o(i.nrf_drv_clock_init) refers to nrf_drv_clock.o(.bss) for .bss
    nrf_drv_clock.o(i.nrf_drv_clock_init) refers to nrf_drv_clock.o(i.clock_irq_handler) for clock_irq_handler
    nrf_drv_clock.o(i.nrf_drv_clock_init_check) refers to nrf_drv_clock.o(.bss) for .bss
    nrf_drv_clock.o(i.nrf_drv_clock_lfclk_is_running) refers to nrf_sdh.o(i.nrf_sdh_is_enabled) for nrf_sdh_is_enabled
    nrf_drv_clock.o(i.nrf_drv_clock_lfclk_release) refers to app_util_platform.o(i.app_util_critical_region_enter) for app_util_critical_region_enter
    nrf_drv_clock.o(i.nrf_drv_clock_lfclk_release) refers to nrfx_clock.o(i.nrfx_clock_lfclk_stop) for nrfx_clock_lfclk_stop
    nrf_drv_clock.o(i.nrf_drv_clock_lfclk_release) refers to app_util_platform.o(i.app_util_critical_region_exit) for app_util_critical_region_exit
    nrf_drv_clock.o(i.nrf_drv_clock_lfclk_release) refers to nrf_drv_clock.o(.bss) for .bss
    nrf_drv_clock.o(i.nrf_drv_clock_lfclk_request) refers to app_util_platform.o(i.app_util_critical_region_enter) for app_util_critical_region_enter
    nrf_drv_clock.o(i.nrf_drv_clock_lfclk_request) refers to nrfx_clock.o(i.nrfx_clock_lfclk_start) for nrfx_clock_lfclk_start
    nrf_drv_clock.o(i.nrf_drv_clock_lfclk_request) refers to app_util_platform.o(i.app_util_critical_region_exit) for app_util_critical_region_exit
    nrf_drv_clock.o(i.nrf_drv_clock_lfclk_request) refers to nrf_drv_clock.o(.bss) for .bss
    nrf_drv_clock.o(i.nrf_drv_clock_uninit) refers to nrfx_clock.o(i.nrfx_clock_disable) for nrfx_clock_disable
    nrf_drv_clock.o(i.nrf_drv_clock_uninit) refers to nrfx_clock.o(i.nrfx_clock_uninit) for nrfx_clock_uninit
    nrf_drv_clock.o(i.nrf_drv_clock_uninit) refers to nrf_drv_clock.o(.bss) for .bss
    nrf_drv_clock.o(i.sd_state_evt_handler) refers to nrfx_clock.o(i.nrfx_clock_enable) for nrfx_clock_enable
    nrf_drv_clock.o(i.sd_state_evt_handler) refers to app_util_platform.o(i.app_util_critical_region_enter) for app_util_critical_region_enter
    nrf_drv_clock.o(i.sd_state_evt_handler) refers to nrfx_clock.o(i.nrfx_clock_init) for nrfx_clock_init
    nrf_drv_clock.o(i.sd_state_evt_handler) refers to nrf_sdh.o(i.nrf_sdh_is_enabled) for nrf_sdh_is_enabled
    nrf_drv_clock.o(i.sd_state_evt_handler) refers to app_util_platform.o(i.app_util_critical_region_exit) for app_util_critical_region_exit
    nrf_drv_clock.o(i.sd_state_evt_handler) refers to nrfx_clock.o(i.nrfx_clock_lfclk_stop) for nrfx_clock_lfclk_stop
    nrf_drv_clock.o(i.sd_state_evt_handler) refers to nrf_drv_clock.o(.bss) for .bss
    nrf_drv_clock.o(i.sd_state_evt_handler) refers to nrf_drv_clock.o(i.clock_irq_handler) for clock_irq_handler
    nrf_drv_clock.o(i.soc_evt_handler) refers to nrf_drv_clock.o(.bss) for .bss
    nrf_drv_clock.o(log_const_data) refers to nrf_drv_clock.o(.conststrlit) for .conststrlit
    nrf_drv_clock.o(sdh_soc_observers0) refers to nrf_drv_clock.o(i.soc_evt_handler) for soc_evt_handler
    nrf_drv_clock.o(sdh_state_observers0) refers to nrf_drv_clock.o(i.sd_state_evt_handler) for sd_state_evt_handler
    nrfx_atomic.o(i.nrfx_atomic_flag_clear) refers to nrfx_atomic.o(.emb_text) for __asm___13_nrfx_atomic_c_3bd32246__nrfx_atomic_internal_and
    nrfx_atomic.o(i.nrfx_atomic_flag_clear_fetch) refers to nrfx_atomic.o(.emb_text) for __asm___13_nrfx_atomic_c_3bd32246__nrfx_atomic_internal_and
    nrfx_atomic.o(i.nrfx_atomic_flag_set) refers to nrfx_atomic.o(.emb_text) for __asm___13_nrfx_atomic_c_3bd32246__nrfx_atomic_internal_orr
    nrfx_atomic.o(i.nrfx_atomic_flag_set_fetch) refers to nrfx_atomic.o(.emb_text) for __asm___13_nrfx_atomic_c_3bd32246__nrfx_atomic_internal_orr
    nrfx_atomic.o(i.nrfx_atomic_u32_add) refers to nrfx_atomic.o(.emb_text) for __asm___13_nrfx_atomic_c_3bd32246__nrfx_atomic_internal_add
    nrfx_atomic.o(i.nrfx_atomic_u32_and) refers to nrfx_atomic.o(.emb_text) for __asm___13_nrfx_atomic_c_3bd32246__nrfx_atomic_internal_and
    nrfx_atomic.o(i.nrfx_atomic_u32_cmp_exch) refers to nrfx_atomic.o(.emb_text) for __asm___13_nrfx_atomic_c_3bd32246__nrfx_atomic_internal_cmp_exch
    nrfx_atomic.o(i.nrfx_atomic_u32_fetch_add) refers to nrfx_atomic.o(.emb_text) for __asm___13_nrfx_atomic_c_3bd32246__nrfx_atomic_internal_add
    nrfx_atomic.o(i.nrfx_atomic_u32_fetch_and) refers to nrfx_atomic.o(.emb_text) for __asm___13_nrfx_atomic_c_3bd32246__nrfx_atomic_internal_and
    nrfx_atomic.o(i.nrfx_atomic_u32_fetch_or) refers to nrfx_atomic.o(.emb_text) for __asm___13_nrfx_atomic_c_3bd32246__nrfx_atomic_internal_orr
    nrfx_atomic.o(i.nrfx_atomic_u32_fetch_store) refers to nrfx_atomic.o(.emb_text) for __asm___13_nrfx_atomic_c_3bd32246__nrfx_atomic_internal_mov
    nrfx_atomic.o(i.nrfx_atomic_u32_fetch_sub) refers to nrfx_atomic.o(.emb_text) for __asm___13_nrfx_atomic_c_3bd32246__nrfx_atomic_internal_sub
    nrfx_atomic.o(i.nrfx_atomic_u32_fetch_sub_hs) refers to nrfx_atomic.o(.emb_text) for __asm___13_nrfx_atomic_c_3bd32246__nrfx_atomic_internal_sub_hs
    nrfx_atomic.o(i.nrfx_atomic_u32_fetch_xor) refers to nrfx_atomic.o(.emb_text) for __asm___13_nrfx_atomic_c_3bd32246__nrfx_atomic_internal_eor
    nrfx_atomic.o(i.nrfx_atomic_u32_or) refers to nrfx_atomic.o(.emb_text) for __asm___13_nrfx_atomic_c_3bd32246__nrfx_atomic_internal_orr
    nrfx_atomic.o(i.nrfx_atomic_u32_store) refers to nrfx_atomic.o(.emb_text) for __asm___13_nrfx_atomic_c_3bd32246__nrfx_atomic_internal_mov
    nrfx_atomic.o(i.nrfx_atomic_u32_sub) refers to nrfx_atomic.o(.emb_text) for __asm___13_nrfx_atomic_c_3bd32246__nrfx_atomic_internal_sub
    nrfx_atomic.o(i.nrfx_atomic_u32_sub_hs) refers to nrfx_atomic.o(.emb_text) for __asm___13_nrfx_atomic_c_3bd32246__nrfx_atomic_internal_sub_hs
    nrfx_atomic.o(i.nrfx_atomic_u32_xor) refers to nrfx_atomic.o(.emb_text) for __asm___13_nrfx_atomic_c_3bd32246__nrfx_atomic_internal_eor
    nrfx_clock.o(i.POWER_CLOCK_IRQHandler) refers to nrfx_clock.o(.data) for .data
    nrfx_clock.o(i.nrfx_clock_init) refers to nrfx_clock.o(.data) for .data
    nrfx_clock.o(i.nrfx_clock_uninit) refers to nrfx_clock.o(.data) for .data
    nrfx_clock.o(log_const_data) refers to nrfx_clock.o(.conststrlit) for .conststrlit
    nrfx_gpiote.o(i.GPIOTE_IRQHandler) refers to nrfx_gpiote.o(.constdata) for .constdata
    nrfx_gpiote.o(i.GPIOTE_IRQHandler) refers to nrfx_gpiote.o(.bss) for .bss
    nrfx_gpiote.o(i.nrfx_gpiote_clr_task_addr_get) refers to nrfx_gpiote.o(.bss) for .bss
    nrfx_gpiote.o(i.nrfx_gpiote_clr_task_get) refers to nrfx_gpiote.o(.bss) for .bss
    nrfx_gpiote.o(i.nrfx_gpiote_clr_task_trigger) refers to nrfx_gpiote.o(.bss) for .bss
    nrfx_gpiote.o(i.nrfx_gpiote_in_event_addr_get) refers to nrfx_gpiote.o(.bss) for .bss
    nrfx_gpiote.o(i.nrfx_gpiote_in_event_disable) refers to nrfx_gpiote.o(.bss) for .bss
    nrfx_gpiote.o(i.nrfx_gpiote_in_event_enable) refers to nrfx_gpiote.o(.bss) for .bss
    nrfx_gpiote.o(i.nrfx_gpiote_in_event_get) refers to nrfx_gpiote.o(.bss) for .bss
    nrfx_gpiote.o(i.nrfx_gpiote_in_init) refers to nrfx_gpiote.o(.bss) for .bss
    nrfx_gpiote.o(i.nrfx_gpiote_in_uninit) refers to nrfx_gpiote.o(.bss) for .bss
    nrfx_gpiote.o(i.nrfx_gpiote_init) refers to nrfx_gpiote.o(.bss) for .bss
    nrfx_gpiote.o(i.nrfx_gpiote_is_init) refers to nrfx_gpiote.o(.bss) for .bss
    nrfx_gpiote.o(i.nrfx_gpiote_out_init) refers to nrfx_gpiote.o(.bss) for .bss
    nrfx_gpiote.o(i.nrfx_gpiote_out_task_addr_get) refers to nrfx_gpiote.o(.bss) for .bss
    nrfx_gpiote.o(i.nrfx_gpiote_out_task_disable) refers to nrfx_gpiote.o(.bss) for .bss
    nrfx_gpiote.o(i.nrfx_gpiote_out_task_enable) refers to nrfx_gpiote.o(.bss) for .bss
    nrfx_gpiote.o(i.nrfx_gpiote_out_task_force) refers to nrfx_gpiote.o(.bss) for .bss
    nrfx_gpiote.o(i.nrfx_gpiote_out_task_get) refers to nrfx_gpiote.o(.bss) for .bss
    nrfx_gpiote.o(i.nrfx_gpiote_out_task_trigger) refers to nrfx_gpiote.o(.bss) for .bss
    nrfx_gpiote.o(i.nrfx_gpiote_out_uninit) refers to nrfx_gpiote.o(.bss) for .bss
    nrfx_gpiote.o(i.nrfx_gpiote_set_task_addr_get) refers to nrfx_gpiote.o(.bss) for .bss
    nrfx_gpiote.o(i.nrfx_gpiote_set_task_get) refers to nrfx_gpiote.o(.bss) for .bss
    nrfx_gpiote.o(i.nrfx_gpiote_set_task_trigger) refers to nrfx_gpiote.o(.bss) for .bss
    nrfx_gpiote.o(i.nrfx_gpiote_uninit) refers to nrfx_gpiote.o(.bss) for .bss
    nrfx_gpiote.o(log_const_data) refers to nrfx_gpiote.o(.conststrlit) for .conststrlit
    nrf_drv_spi.o(i.nrf_drv_spi_init) refers to nrfx_spi.o(i.nrfx_spi_init) for nrfx_spi_init
    nrf_drv_spi.o(i.nrf_drv_spi_init) refers to nrf_drv_spi.o(.data) for .data
    nrf_drv_spi.o(i.nrf_drv_spi_init) refers to nrf_drv_spi.o(i.spi_evt_handler) for spi_evt_handler
    nrf_drv_spi.o(i.spi_evt_handler) refers to nrf_drv_spi.o(.data) for .data
    nrfx_saadc.o(i.SAADC_IRQHandler) refers to nrfx_saadc.o(.bss) for .bss
    nrfx_saadc.o(i.nrfx_saadc_abort) refers to nrfx_saadc.o(.bss) for .bss
    nrfx_saadc.o(i.nrfx_saadc_buffer_convert) refers to nrfx_saadc.o(.bss) for .bss
    nrfx_saadc.o(i.nrfx_saadc_calibrate_offset) refers to nrfx_saadc.o(.bss) for .bss
    nrfx_saadc.o(i.nrfx_saadc_channel_init) refers to nrfx_saadc.o(.bss) for .bss
    nrfx_saadc.o(i.nrfx_saadc_channel_uninit) refers to nrfx_saadc.o(.bss) for .bss
    nrfx_saadc.o(i.nrfx_saadc_init) refers to nrfx_saadc.o(.bss) for .bss
    nrfx_saadc.o(i.nrfx_saadc_is_busy) refers to nrfx_saadc.o(.bss) for .bss
    nrfx_saadc.o(i.nrfx_saadc_limits_set) refers to nrfx_saadc.o(.bss) for .bss
    nrfx_saadc.o(i.nrfx_saadc_sample) refers to nrfx_saadc.o(.bss) for .bss
    nrfx_saadc.o(i.nrfx_saadc_sample_convert) refers to nrfx_saadc.o(.bss) for .bss
    nrfx_saadc.o(i.nrfx_saadc_sample_task_get) refers to nrfx_saadc.o(.bss) for .bss
    nrfx_saadc.o(i.nrfx_saadc_uninit) refers to nrfx_saadc.o(.bss) for .bss
    nrfx_saadc.o(log_const_data) refers to nrfx_saadc.o(.conststrlit) for .conststrlit
    nrfx_spi.o(i.SPIM0_SPIS0_SPI0_IRQHandler) refers to nrfx_spi.o(.bss) for .bss
    nrfx_spi.o(i.nrfx_spi_abort) refers to nrfx_spi.o(.bss) for .bss
    nrfx_spi.o(i.nrfx_spi_init) refers to nrfx_spi.o(.bss) for .bss
    nrfx_spi.o(i.nrfx_spi_uninit) refers to nrfx_spi.o(.bss) for .bss
    nrfx_spi.o(i.nrfx_spi_xfer) refers to nrfx_spi.o(.bss) for .bss
    nrfx_spi.o(log_const_data) refers to nrfx_spi.o(.conststrlit) for .conststrlit
    nrfx_wdt.o(i.WDT_IRQHandler) refers to nrfx_wdt.o(.data) for .data
    nrfx_wdt.o(i.nrfx_wdt_channel_alloc) refers to app_util_platform.o(i.app_util_critical_region_enter) for app_util_critical_region_enter
    nrfx_wdt.o(i.nrfx_wdt_channel_alloc) refers to app_util_platform.o(i.app_util_critical_region_exit) for app_util_critical_region_exit
    nrfx_wdt.o(i.nrfx_wdt_channel_alloc) refers to nrfx_wdt.o(.data) for .data
    nrfx_wdt.o(i.nrfx_wdt_enable) refers to nrfx_wdt.o(.data) for .data
    nrfx_wdt.o(i.nrfx_wdt_feed) refers to nrfx_wdt.o(.data) for .data
    nrfx_wdt.o(i.nrfx_wdt_init) refers to uldiv.o(.text) for __aeabi_uldivmod
    nrfx_wdt.o(i.nrfx_wdt_init) refers to nrfx_wdt.o(.data) for .data
    nrfx_wdt.o(log_const_data) refers to nrfx_wdt.o(.conststrlit) for .conststrlit
    nrfx_rtc.o(i.RTC0_IRQHandler) refers to nrfx_rtc.o(.data) for .data
    nrfx_rtc.o(i.nrfx_rtc_cc_set) refers to nrfx_rtc.o(.data) for .data
    nrfx_rtc.o(i.nrfx_rtc_disable) refers to nrfx_rtc.o(.data) for .data
    nrfx_rtc.o(i.nrfx_rtc_enable) refers to nrfx_rtc.o(.data) for .data
    nrfx_rtc.o(i.nrfx_rtc_init) refers to nrfx_rtc.o(.data) for .data
    nrfx_rtc.o(i.nrfx_rtc_max_ticks_get) refers to nrfx_rtc.o(.data) for .data
    nrfx_rtc.o(i.nrfx_rtc_uninit) refers to nrfx_rtc.o(.data) for .data
    nrfx_rtc.o(log_const_data) refers to nrfx_rtc.o(.conststrlit) for .conststrlit
    app_button.o(i.app_button_disable) refers to nrfx_gpiote.o(i.nrfx_gpiote_in_event_disable) for nrfx_gpiote_in_event_disable
    app_button.o(i.app_button_disable) refers to app_util_platform.o(i.app_util_critical_region_enter) for app_util_critical_region_enter
    app_button.o(i.app_button_disable) refers to app_util_platform.o(i.app_util_critical_region_exit) for app_util_critical_region_exit
    app_button.o(i.app_button_disable) refers to app_timer2.o(i.app_timer_stop) for app_timer_stop
    app_button.o(i.app_button_disable) refers to app_button.o(.data) for .data
    app_button.o(i.app_button_disable) refers to app_button.o(.constdata) for .constdata
    app_button.o(i.app_button_enable) refers to nrfx_gpiote.o(i.nrfx_gpiote_in_event_enable) for nrfx_gpiote_in_event_enable
    app_button.o(i.app_button_enable) refers to app_button.o(.data) for .data
    app_button.o(i.app_button_init) refers to nrfx_gpiote.o(i.nrfx_gpiote_is_init) for nrfx_gpiote_is_init
    app_button.o(i.app_button_init) refers to nrfx_gpiote.o(i.nrfx_gpiote_init) for nrfx_gpiote_init
    app_button.o(i.app_button_init) refers to nrfx_gpiote.o(i.nrfx_gpiote_in_init) for nrfx_gpiote_in_init
    app_button.o(i.app_button_init) refers to app_timer2.o(i.app_timer_create) for app_timer_create
    app_button.o(i.app_button_init) refers to app_button.o(.data) for .data
    app_button.o(i.app_button_init) refers to app_button.o(.bss) for .bss
    app_button.o(i.app_button_init) refers to app_button.o(.constdata) for .constdata
    app_button.o(i.app_button_init) refers to app_button.o(i.gpiote_event_handler) for gpiote_event_handler
    app_button.o(i.app_button_init) refers to app_button.o(i.detection_delay_timeout_handler) for detection_delay_timeout_handler
    app_button.o(i.app_button_is_pushed) refers to nrfx_gpiote.o(i.nrfx_gpiote_in_is_set) for nrfx_gpiote_in_is_set
    app_button.o(i.app_button_is_pushed) refers to app_button.o(.data) for .data
    app_button.o(i.detection_delay_timeout_handler) refers to nrfx_gpiote.o(i.nrfx_gpiote_in_is_set) for nrfx_gpiote_in_is_set
    app_button.o(i.detection_delay_timeout_handler) refers to app_button.o(i.state_set) for state_set
    app_button.o(i.detection_delay_timeout_handler) refers to app_util_platform.o(i.app_util_critical_region_enter) for app_util_critical_region_enter
    app_button.o(i.detection_delay_timeout_handler) refers to llshl.o(.text) for __aeabi_llsl
    app_button.o(i.detection_delay_timeout_handler) refers to app_util_platform.o(i.app_util_critical_region_exit) for app_util_critical_region_exit
    app_button.o(i.detection_delay_timeout_handler) refers to app_timer2.o(i.app_timer_start) for app_timer_start
    app_button.o(i.detection_delay_timeout_handler) refers to app_button.o(.data) for .data
    app_button.o(i.detection_delay_timeout_handler) refers to app_button.o(.bss) for .bss
    app_button.o(i.detection_delay_timeout_handler) refers to app_button.o(.constdata) for .constdata
    app_button.o(i.evt_handle) refers to llshl.o(.text) for __aeabi_llsl
    app_button.o(i.evt_handle) refers to app_button.o(i.state_set) for state_set
    app_button.o(i.evt_handle) refers to app_util_platform.o(i.app_util_critical_region_enter) for app_util_critical_region_enter
    app_button.o(i.evt_handle) refers to app_util_platform.o(i.app_util_critical_region_exit) for app_util_critical_region_exit
    app_button.o(i.evt_handle) refers to app_button.o(.bss) for .bss
    app_button.o(i.evt_handle) refers to app_button.o(.data) for .data
    app_button.o(i.gpiote_event_handler) refers to nrfx_gpiote.o(i.nrfx_gpiote_in_is_set) for nrfx_gpiote_in_is_set
    app_button.o(i.gpiote_event_handler) refers to app_timer2.o(i.app_timer_start) for app_timer_start
    app_button.o(i.gpiote_event_handler) refers to app_button.o(.data) for .data
    app_button.o(i.gpiote_event_handler) refers to app_button.o(.constdata) for .constdata
    app_button.o(i.state_set) refers to app_button.o(.bss) for .bss
    app_button.o(.constdata) refers to app_button.o(.data) for m_detection_delay_timer_id_data
    app_button.o(log_const_data) refers to app_button.o(.conststrlit) for .conststrlit
    app_error.o(i.app_error_handler_bare) refers to app_error_weak.o(i.app_error_fault_handler) for app_error_fault_handler
    app_error.o(i.app_error_save_and_stop) refers to app_error.o(.bss) for .bss
    app_error_handler_keil.o(.emb_text) refers to app_error_weak.o(i.app_error_fault_handler) for app_error_fault_handler
    app_error_weak.o(i.app_error_fault_handler) refers to nrf_log_frontend.o(i.nrf_log_panic) for nrf_log_panic
    app_error_weak.o(i.app_error_fault_handler) refers to nrf_log_frontend.o(i.nrf_log_frontend_dequeue) for nrf_log_frontend_dequeue
    app_error_weak.o(i.app_error_fault_handler) refers to nrf_log_frontend.o(i.nrf_log_frontend_std_2) for nrf_log_frontend_std_2
    app_error_weak.o(i.app_error_fault_handler) refers to nrf_log_frontend.o(i.nrf_log_frontend_std_1) for nrf_log_frontend_std_1
    app_error_weak.o(i.app_error_fault_handler) refers to app_error.o(i.app_error_save_and_stop) for app_error_save_and_stop
    app_error_weak.o(i.app_error_fault_handler) refers to nrf_log_frontend.o(i.nrf_log_frontend_std_0) for nrf_log_frontend_std_0
    app_error_weak.o(i.app_error_fault_handler) refers to nrf_strerror.o(i.nrf_strerror_get) for nrf_strerror_get
    app_error_weak.o(i.app_error_fault_handler) refers to nrf_log_frontend.o(i.nrf_log_frontend_std_5) for nrf_log_frontend_std_5
    app_error_weak.o(i.app_error_fault_handler) refers to nrf_log_frontend.o(log_const_data) for m_nrf_log_app_logs_data_const
    app_scheduler.o(i.app_sched_event_put) refers to app_util_platform.o(i.app_util_critical_region_enter) for app_util_critical_region_enter
    app_scheduler.o(i.app_sched_event_put) refers to app_util_platform.o(i.app_util_critical_region_exit) for app_util_critical_region_exit
    app_scheduler.o(i.app_sched_event_put) refers to memcpya.o(.text) for __aeabi_memcpy
    app_scheduler.o(i.app_sched_event_put) refers to app_scheduler.o(.data) for .data
    app_scheduler.o(i.app_sched_execute) refers to app_scheduler.o(.data) for .data
    app_scheduler.o(i.app_sched_init) refers to app_scheduler.o(.data) for .data
    app_scheduler.o(i.app_sched_queue_space_get) refers to app_scheduler.o(.data) for .data
    app_timer2.o(i.app_timer_cnt_get) refers to drv_rtc.o(i.drv_rtc_counter_get) for drv_rtc_counter_get
    app_timer2.o(i.app_timer_cnt_get) refers to app_timer2.o(.data) for .data
    app_timer2.o(i.app_timer_init) refers to nrf_atfifo.o(i.nrf_atfifo_init) for nrf_atfifo_init
    app_timer2.o(i.app_timer_init) refers to drv_rtc.o(i.drv_rtc_init) for drv_rtc_init
    app_timer2.o(i.app_timer_init) refers to drv_rtc.o(i.drv_rtc_overflow_enable) for drv_rtc_overflow_enable
    app_timer2.o(i.app_timer_init) refers to drv_rtc.o(i.drv_rtc_compare_set) for drv_rtc_compare_set
    app_timer2.o(i.app_timer_init) refers to app_timer2.o(.constdata) for .constdata
    app_timer2.o(i.app_timer_init) refers to app_timer2.o(.bss) for .bss
    app_timer2.o(i.app_timer_init) refers to app_timer2.o(i.rtc_irq) for rtc_irq
    app_timer2.o(i.app_timer_init) refers to app_timer2.o(.data) for .data
    app_timer2.o(i.app_timer_pause) refers to drv_rtc.o(i.drv_rtc_stop) for drv_rtc_stop
    app_timer2.o(i.app_timer_pause) refers to app_timer2.o(.data) for .data
    app_timer2.o(i.app_timer_resume) refers to drv_rtc.o(i.drv_rtc_start) for drv_rtc_start
    app_timer2.o(i.app_timer_resume) refers to app_timer2.o(.data) for .data
    app_timer2.o(i.app_timer_start) refers to app_util_platform.o(i.app_util_critical_region_enter) for app_util_critical_region_enter
    app_timer2.o(i.app_timer_start) refers to app_util_platform.o(i.app_util_critical_region_exit) for app_util_critical_region_exit
    app_timer2.o(i.app_timer_start) refers to drv_rtc.o(i.drv_rtc_counter_get) for drv_rtc_counter_get
    app_timer2.o(i.app_timer_start) refers to nrf_atfifo.o(i.nrf_atfifo_item_alloc) for nrf_atfifo_item_alloc
    app_timer2.o(i.app_timer_start) refers to nrf_atfifo.o(i.nrf_atfifo_item_put) for nrf_atfifo_item_put
    app_timer2.o(i.app_timer_start) refers to drv_rtc.o(i.drv_rtc_irq_trigger) for drv_rtc_irq_trigger
    app_timer2.o(i.app_timer_start) refers to app_timer2.o(.data) for .data
    app_timer2.o(i.app_timer_start) refers to app_timer2.o(.constdata) for .constdata
    app_timer2.o(i.app_timer_stop) refers to app_util_platform.o(i.app_util_critical_region_enter) for app_util_critical_region_enter
    app_timer2.o(i.app_timer_stop) refers to app_util_platform.o(i.app_util_critical_region_exit) for app_util_critical_region_exit
    app_timer2.o(i.app_timer_stop) refers to nrf_atfifo.o(i.nrf_atfifo_item_alloc) for nrf_atfifo_item_alloc
    app_timer2.o(i.app_timer_stop) refers to nrf_atfifo.o(i.nrf_atfifo_item_put) for nrf_atfifo_item_put
    app_timer2.o(i.app_timer_stop) refers to drv_rtc.o(i.drv_rtc_irq_trigger) for drv_rtc_irq_trigger
    app_timer2.o(i.app_timer_stop) refers to app_timer2.o(.constdata) for .constdata
    app_timer2.o(i.app_timer_stop) refers to app_timer2.o(.data) for .data
    app_timer2.o(i.app_timer_stop_all) refers to nrf_atfifo.o(i.nrf_atfifo_item_alloc) for nrf_atfifo_item_alloc
    app_timer2.o(i.app_timer_stop_all) refers to nrf_atfifo.o(i.nrf_atfifo_item_put) for nrf_atfifo_item_put
    app_timer2.o(i.app_timer_stop_all) refers to drv_rtc.o(i.drv_rtc_irq_trigger) for drv_rtc_irq_trigger
    app_timer2.o(i.app_timer_stop_all) refers to app_timer2.o(.data) for .data
    app_timer2.o(i.app_timer_stop_all) refers to app_timer2.o(.constdata) for .constdata
    app_timer2.o(i.rtc_irq) refers to drv_rtc.o(i.drv_rtc_overflow_pending) for drv_rtc_overflow_pending
    app_timer2.o(i.rtc_irq) refers to drv_rtc.o(i.drv_rtc_compare_pending) for drv_rtc_compare_pending
    app_timer2.o(i.rtc_irq) refers to app_timer2.o(i.timer_expire) for timer_expire
    app_timer2.o(i.rtc_irq) refers to drv_rtc.o(i.drv_rtc_counter_get) for drv_rtc_counter_get
    app_timer2.o(i.rtc_irq) refers to nrf_atfifo.o(i.nrf_atfifo_item_get) for nrf_atfifo_item_get
    app_timer2.o(i.rtc_irq) refers to nrf_sortlist.o(i.nrf_sortlist_add) for nrf_sortlist_add
    app_timer2.o(i.rtc_irq) refers to nrf_sortlist.o(i.nrf_sortlist_remove) for nrf_sortlist_remove
    app_timer2.o(i.rtc_irq) refers to nrf_sortlist.o(i.nrf_sortlist_pop) for nrf_sortlist_pop
    app_timer2.o(i.rtc_irq) refers to nrf_atfifo.o(i.nrf_atfifo_item_free) for nrf_atfifo_item_free
    app_timer2.o(i.rtc_irq) refers to nrf_sortlist.o(i.nrf_sortlist_peek) for nrf_sortlist_peek
    app_timer2.o(i.rtc_irq) refers to drv_rtc.o(i.drv_rtc_windowed_compare_set) for drv_rtc_windowed_compare_set
    app_timer2.o(i.rtc_irq) refers to drv_rtc.o(i.drv_rtc_stop) for drv_rtc_stop
    app_timer2.o(i.rtc_irq) refers to drv_rtc.o(i.drv_rtc_start) for drv_rtc_start
    app_timer2.o(i.rtc_irq) refers to drv_rtc.o(i.drv_rtc_compare_disable) for drv_rtc_compare_disable
    app_timer2.o(i.rtc_irq) refers to app_timer2.o(.data) for .data
    app_timer2.o(i.rtc_irq) refers to app_timer2.o(.constdata) for .constdata
    app_timer2.o(i.timer_expire) refers to drv_rtc.o(i.drv_rtc_counter_get) for drv_rtc_counter_get
    app_timer2.o(i.timer_expire) refers to app_util_platform.o(i.app_util_critical_region_enter) for app_util_critical_region_enter
    app_timer2.o(i.timer_expire) refers to app_util_platform.o(i.app_util_critical_region_exit) for app_util_critical_region_exit
    app_timer2.o(i.timer_expire) refers to nrf_sortlist.o(i.nrf_sortlist_add) for nrf_sortlist_add
    app_timer2.o(i.timer_expire) refers to app_timer2.o(.data) for .data
    app_timer2.o(i.timer_expire) refers to app_timer2.o(.constdata) for .constdata
    app_timer2.o(.constdata) refers to app_timer2.o(.bss) for m_req_fifo_inst
    app_timer2.o(.constdata) refers to app_timer2.o(.data) for m_app_timer_sortlist_sortlist_cb
    app_timer2.o(.constdata) refers to app_timer2.o(i.compare_func) for compare_func
    app_timer2.o(log_const_data) refers to app_timer2.o(.conststrlit) for .conststrlit
    app_util_platform.o(i.app_util_critical_region_enter) refers to app_util_platform.o(.bss) for .bss
    app_util_platform.o(i.app_util_critical_region_exit) refers to app_util_platform.o(.bss) for .bss
    app_util_platform.o(i.app_util_disable_irq) refers to app_util_platform.o(.data) for .data
    app_util_platform.o(i.app_util_enable_irq) refers to app_util_platform.o(.data) for .data
    drv_rtc.o(i.RTC1_IRQHandler) refers to drv_rtc.o(.data) for .data
    drv_rtc.o(i.drv_rtc_init) refers to nrf_log_frontend.o(i.nrf_log_frontend_std_0) for nrf_log_frontend_std_0
    drv_rtc.o(i.drv_rtc_init) refers to drv_rtc.o(.data) for .data
    drv_rtc.o(i.drv_rtc_init) refers to app_timer2.o(log_const_data) for m_nrf_log_app_timer_logs_data_const
    drv_rtc.o(i.drv_rtc_uninit) refers to nrf_log_frontend.o(i.nrf_log_frontend_std_0) for nrf_log_frontend_std_0
    drv_rtc.o(i.drv_rtc_uninit) refers to drv_rtc.o(.data) for .data
    drv_rtc.o(i.drv_rtc_uninit) refers to app_timer2.o(log_const_data) for m_nrf_log_app_timer_logs_data_const
    drv_rtc.o(i.drv_rtc_windowed_compare_set) refers to drv_rtc.o(.constdata) for .constdata
    nrf_assert.o(i.assert_nrf_callback) refers to app_error_weak.o(i.app_error_fault_handler) for app_error_fault_handler
    nrf_atfifo.o(i.nrf_atfifo_alloc_put) refers to nrf_atfifo.o(.emb_text) for __asm___12_nrf_atfifo_c_51f461e1__nrf_atfifo_wspace_req
    nrf_atfifo.o(i.nrf_atfifo_alloc_put) refers to memcpya.o(.text) for __aeabi_memcpy
    nrf_atfifo.o(i.nrf_atfifo_clear) refers to nrf_atfifo.o(.emb_text) for __asm___12_nrf_atfifo_c_51f461e1__nrf_atfifo_space_clear
    nrf_atfifo.o(i.nrf_atfifo_get_free) refers to nrf_atfifo.o(.emb_text) for __asm___12_nrf_atfifo_c_51f461e1__nrf_atfifo_rspace_req
    nrf_atfifo.o(i.nrf_atfifo_get_free) refers to memcpya.o(.text) for __aeabi_memcpy
    nrf_atfifo.o(i.nrf_atfifo_item_alloc) refers to nrf_atfifo.o(.emb_text) for __asm___12_nrf_atfifo_c_51f461e1__nrf_atfifo_wspace_req
    nrf_atfifo.o(i.nrf_atfifo_item_free) refers to nrf_atfifo.o(.emb_text) for __asm___12_nrf_atfifo_c_51f461e1__nrf_atfifo_rspace_close
    nrf_atfifo.o(i.nrf_atfifo_item_get) refers to nrf_atfifo.o(.emb_text) for __asm___12_nrf_atfifo_c_51f461e1__nrf_atfifo_rspace_req
    nrf_atfifo.o(i.nrf_atfifo_item_put) refers to nrf_atfifo.o(.emb_text) for __asm___12_nrf_atfifo_c_51f461e1__nrf_atfifo_wspace_close
    nrf_atflags.o(i.nrf_atflags_clear) refers to nrf_atomic.o(i.nrf_atomic_u32_and) for nrf_atomic_u32_and
    nrf_atflags.o(i.nrf_atflags_fetch_clear) refers to nrf_atomic.o(i.nrf_atomic_u32_fetch_and) for nrf_atomic_u32_fetch_and
    nrf_atflags.o(i.nrf_atflags_fetch_set) refers to nrf_atomic.o(i.nrf_atomic_u32_fetch_or) for nrf_atomic_u32_fetch_or
    nrf_atflags.o(i.nrf_atflags_find_and_clear_flag) refers to nrf_atomic.o(i.nrf_atomic_u32_fetch_and) for nrf_atomic_u32_fetch_and
    nrf_atflags.o(i.nrf_atflags_find_and_set_flag) refers to nrf_atomic.o(i.nrf_atomic_u32_fetch_or) for nrf_atomic_u32_fetch_or
    nrf_atflags.o(i.nrf_atflags_set) refers to nrf_atomic.o(i.nrf_atomic_u32_or) for nrf_atomic_u32_or
    nrf_atomic.o(i.nrf_atomic_flag_clear) refers to nrf_atomic.o(.emb_text) for __asm___12_nrf_atomic_c_85ca2469__nrf_atomic_internal_and
    nrf_atomic.o(i.nrf_atomic_flag_clear_fetch) refers to nrf_atomic.o(.emb_text) for __asm___12_nrf_atomic_c_85ca2469__nrf_atomic_internal_and
    nrf_atomic.o(i.nrf_atomic_flag_set) refers to nrf_atomic.o(.emb_text) for __asm___12_nrf_atomic_c_85ca2469__nrf_atomic_internal_orr
    nrf_atomic.o(i.nrf_atomic_flag_set_fetch) refers to nrf_atomic.o(.emb_text) for __asm___12_nrf_atomic_c_85ca2469__nrf_atomic_internal_orr
    nrf_atomic.o(i.nrf_atomic_u32_add) refers to nrf_atomic.o(.emb_text) for __asm___12_nrf_atomic_c_85ca2469__nrf_atomic_internal_add
    nrf_atomic.o(i.nrf_atomic_u32_and) refers to nrf_atomic.o(.emb_text) for __asm___12_nrf_atomic_c_85ca2469__nrf_atomic_internal_and
    nrf_atomic.o(i.nrf_atomic_u32_cmp_exch) refers to nrf_atomic.o(.emb_text) for __asm___12_nrf_atomic_c_85ca2469__nrf_atomic_internal_cmp_exch
    nrf_atomic.o(i.nrf_atomic_u32_fetch_add) refers to nrf_atomic.o(.emb_text) for __asm___12_nrf_atomic_c_85ca2469__nrf_atomic_internal_add
    nrf_atomic.o(i.nrf_atomic_u32_fetch_and) refers to nrf_atomic.o(.emb_text) for __asm___12_nrf_atomic_c_85ca2469__nrf_atomic_internal_and
    nrf_atomic.o(i.nrf_atomic_u32_fetch_or) refers to nrf_atomic.o(.emb_text) for __asm___12_nrf_atomic_c_85ca2469__nrf_atomic_internal_orr
    nrf_atomic.o(i.nrf_atomic_u32_fetch_store) refers to nrf_atomic.o(.emb_text) for __asm___12_nrf_atomic_c_85ca2469__nrf_atomic_internal_mov
    nrf_atomic.o(i.nrf_atomic_u32_fetch_sub) refers to nrf_atomic.o(.emb_text) for __asm___12_nrf_atomic_c_85ca2469__nrf_atomic_internal_sub
    nrf_atomic.o(i.nrf_atomic_u32_fetch_sub_hs) refers to nrf_atomic.o(.emb_text) for __asm___12_nrf_atomic_c_85ca2469__nrf_atomic_internal_sub_hs
    nrf_atomic.o(i.nrf_atomic_u32_fetch_xor) refers to nrf_atomic.o(.emb_text) for __asm___12_nrf_atomic_c_85ca2469__nrf_atomic_internal_eor
    nrf_atomic.o(i.nrf_atomic_u32_or) refers to nrf_atomic.o(.emb_text) for __asm___12_nrf_atomic_c_85ca2469__nrf_atomic_internal_orr
    nrf_atomic.o(i.nrf_atomic_u32_store) refers to nrf_atomic.o(.emb_text) for __asm___12_nrf_atomic_c_85ca2469__nrf_atomic_internal_mov
    nrf_atomic.o(i.nrf_atomic_u32_sub) refers to nrf_atomic.o(.emb_text) for __asm___12_nrf_atomic_c_85ca2469__nrf_atomic_internal_sub
    nrf_atomic.o(i.nrf_atomic_u32_sub_hs) refers to nrf_atomic.o(.emb_text) for __asm___12_nrf_atomic_c_85ca2469__nrf_atomic_internal_sub_hs
    nrf_atomic.o(i.nrf_atomic_u32_xor) refers to nrf_atomic.o(.emb_text) for __asm___12_nrf_atomic_c_85ca2469__nrf_atomic_internal_eor
    nrf_balloc.o(i.nrf_balloc_alloc) refers to app_util_platform.o(i.app_util_critical_region_enter) for app_util_critical_region_enter
    nrf_balloc.o(i.nrf_balloc_alloc) refers to app_util_platform.o(i.app_util_critical_region_exit) for app_util_critical_region_exit
    nrf_balloc.o(i.nrf_balloc_free) refers to app_util_platform.o(i.app_util_critical_region_enter) for app_util_critical_region_enter
    nrf_balloc.o(i.nrf_balloc_free) refers to app_util_platform.o(i.app_util_critical_region_exit) for app_util_critical_region_exit
    nrf_fprintf.o(i.nrf_fprintf) refers to nrf_fprintf_format.o(i.nrf_fprintf_fmt) for nrf_fprintf_fmt
    nrf_fprintf_format.o(i.buffer_add) refers to nrf_fprintf.o(i.nrf_fprintf_buffer_flush) for nrf_fprintf_buffer_flush
    nrf_fprintf_format.o(i.nrf_fprintf_fmt) refers to nrf_fprintf_format.o(i.buffer_add) for buffer_add
    nrf_fprintf_format.o(i.nrf_fprintf_fmt) refers to nrf_fprintf.o(i.nrf_fprintf_buffer_flush) for nrf_fprintf_buffer_flush
    nrf_fprintf_format.o(i.nrf_fprintf_fmt) refers to nrf_fprintf_format.o(i.unsigned_print) for unsigned_print
    nrf_fprintf_format.o(i.nrf_fprintf_fmt) refers to strlen.o(.text) for strlen
    nrf_fprintf_format.o(i.unsigned_print) refers to nrf_fprintf_format.o(i.buffer_add) for buffer_add
    nrf_fprintf_format.o(i.unsigned_print) refers to nrf_fprintf.o(i.nrf_fprintf_buffer_flush) for nrf_fprintf_buffer_flush
    nrf_fprintf_format.o(i.unsigned_print) refers to nrf_fprintf_format.o(.constdata) for .constdata
    nrf_memobj.o(i.nrf_memobj_alloc) refers to nrf_balloc.o(i.nrf_balloc_alloc) for nrf_balloc_alloc
    nrf_memobj.o(i.nrf_memobj_alloc) refers to nrf_balloc.o(i.nrf_balloc_free) for nrf_balloc_free
    nrf_memobj.o(i.nrf_memobj_free) refers to nrf_balloc.o(i.nrf_balloc_free) for nrf_balloc_free
    nrf_memobj.o(i.nrf_memobj_get) refers to nrf_atomic.o(i.nrf_atomic_u32_add) for nrf_atomic_u32_add
    nrf_memobj.o(i.nrf_memobj_pool_init) refers to nrf_balloc.o(i.nrf_balloc_init) for nrf_balloc_init
    nrf_memobj.o(i.nrf_memobj_put) refers to nrf_atomic.o(i.nrf_atomic_u32_sub) for nrf_atomic_u32_sub
    nrf_memobj.o(i.nrf_memobj_put) refers to nrf_balloc.o(i.nrf_balloc_free) for nrf_balloc_free
    nrf_memobj.o(i.nrf_memobj_read) refers to memcpya.o(.text) for __aeabi_memcpy
    nrf_memobj.o(i.nrf_memobj_write) refers to memcpya.o(.text) for __aeabi_memcpy
    nrf_pwr_mgmt.o(i.nrf_pwr_mgmt_init) refers to nrf_section_iter.o(i.nrf_section_iter_init) for nrf_section_iter_init
    nrf_pwr_mgmt.o(i.nrf_pwr_mgmt_init) refers to nrf_pwr_mgmt.o(.data) for .data
    nrf_pwr_mgmt.o(i.nrf_pwr_mgmt_init) refers to nrf_pwr_mgmt.o(.constdata) for .constdata
    nrf_pwr_mgmt.o(i.nrf_pwr_mgmt_init) refers to nrf_pwr_mgmt.o(.bss) for .bss
    nrf_pwr_mgmt.o(i.nrf_pwr_mgmt_run) refers to nrf_sdh.o(i.nrf_sdh_is_enabled) for nrf_sdh_is_enabled
    nrf_pwr_mgmt.o(i.nrf_pwr_mgmt_shutdown) refers to nrf_atomic.o(i.nrf_atomic_u32_fetch_store) for nrf_atomic_u32_fetch_store
    nrf_pwr_mgmt.o(i.nrf_pwr_mgmt_shutdown) refers to nrf_section_iter.o(i.nrf_section_iter_next) for nrf_section_iter_next
    nrf_pwr_mgmt.o(i.nrf_pwr_mgmt_shutdown) refers to nrf_log_frontend.o(i.nrf_log_panic) for nrf_log_panic
    nrf_pwr_mgmt.o(i.nrf_pwr_mgmt_shutdown) refers to nrf_log_frontend.o(i.nrf_log_frontend_dequeue) for nrf_log_frontend_dequeue
    nrf_pwr_mgmt.o(i.nrf_pwr_mgmt_shutdown) refers to nrf_sdh.o(i.nrf_sdh_is_enabled) for nrf_sdh_is_enabled
    nrf_pwr_mgmt.o(i.nrf_pwr_mgmt_shutdown) refers to nrf_pwr_mgmt.o(.data) for .data
    nrf_pwr_mgmt.o(i.nrf_pwr_mgmt_shutdown) refers to nrf_pwr_mgmt.o(.bss) for .bss
    nrf_pwr_mgmt.o(.constdata) refers to nrf_pwr_mgmt.o(.constdata) for pwr_mgmt_data_array
    nrf_pwr_mgmt.o(log_const_data) refers to nrf_pwr_mgmt.o(.conststrlit) for .conststrlit
    nrf_ringbuf.o(i.nrf_ringbuf_alloc) refers to nrf_atomic.o(i.nrf_atomic_flag_set_fetch) for nrf_atomic_flag_set_fetch
    nrf_ringbuf.o(i.nrf_ringbuf_alloc) refers to nrf_atomic.o(i.nrf_atomic_flag_clear) for nrf_atomic_flag_clear
    nrf_ringbuf.o(i.nrf_ringbuf_cpy_get) refers to nrf_atomic.o(i.nrf_atomic_flag_set_fetch) for nrf_atomic_flag_set_fetch
    nrf_ringbuf.o(i.nrf_ringbuf_cpy_get) refers to memcpya.o(.text) for __aeabi_memcpy
    nrf_ringbuf.o(i.nrf_ringbuf_cpy_get) refers to nrf_atomic.o(i.nrf_atomic_flag_clear) for nrf_atomic_flag_clear
    nrf_ringbuf.o(i.nrf_ringbuf_cpy_put) refers to nrf_atomic.o(i.nrf_atomic_flag_set_fetch) for nrf_atomic_flag_set_fetch
    nrf_ringbuf.o(i.nrf_ringbuf_cpy_put) refers to memcpya.o(.text) for __aeabi_memcpy
    nrf_ringbuf.o(i.nrf_ringbuf_cpy_put) refers to nrf_atomic.o(i.nrf_atomic_flag_clear) for nrf_atomic_flag_clear
    nrf_ringbuf.o(i.nrf_ringbuf_free) refers to nrf_atomic.o(i.nrf_atomic_flag_clear) for nrf_atomic_flag_clear
    nrf_ringbuf.o(i.nrf_ringbuf_get) refers to nrf_atomic.o(i.nrf_atomic_flag_set_fetch) for nrf_atomic_flag_set_fetch
    nrf_ringbuf.o(i.nrf_ringbuf_get) refers to nrf_atomic.o(i.nrf_atomic_flag_clear) for nrf_atomic_flag_clear
    nrf_ringbuf.o(i.nrf_ringbuf_put) refers to nrf_atomic.o(i.nrf_atomic_flag_clear_fetch) for nrf_atomic_flag_clear_fetch
    nrf_sortlist.o(log_const_data) refers to nrf_sortlist.o(.conststrlit) for .conststrlit
    nrf_strerror.o(i.nrf_strerror_find) refers to nrf_strerror.o(.constdata) for .constdata
    nrf_strerror.o(i.nrf_strerror_get) refers to nrf_strerror.o(.constdata) for .constdata
    nrf_strerror.o(.constdata) refers to nrf_strerror.o(.conststring) for .conststring
    nrf_fstorage.o(i.nrf_fstorage_erase) refers to nrf_log_frontend.o(i.nrf_log_frontend_std_3) for nrf_log_frontend_std_3
    nrf_fstorage.o(i.nrf_fstorage_erase) refers to nrf_fstorage.o(log_const_data) for log_const_data
    nrf_fstorage.o(i.nrf_fstorage_erase) refers to nrf_fstorage.o(.constdata) for .constdata
    nrf_fstorage.o(i.nrf_fstorage_erase) refers to nrf_fstorage.o(.conststring) for .conststring
    nrf_fstorage.o(i.nrf_fstorage_init) refers to nrf_log_frontend.o(i.nrf_log_frontend_std_3) for nrf_log_frontend_std_3
    nrf_fstorage.o(i.nrf_fstorage_init) refers to nrf_fstorage.o(log_const_data) for log_const_data
    nrf_fstorage.o(i.nrf_fstorage_init) refers to nrf_fstorage.o(.constdata) for .constdata
    nrf_fstorage.o(i.nrf_fstorage_read) refers to nrf_log_frontend.o(i.nrf_log_frontend_std_3) for nrf_log_frontend_std_3
    nrf_fstorage.o(i.nrf_fstorage_read) refers to nrf_fstorage.o(log_const_data) for log_const_data
    nrf_fstorage.o(i.nrf_fstorage_read) refers to nrf_fstorage.o(.constdata) for .constdata
    nrf_fstorage.o(i.nrf_fstorage_uninit) refers to nrf_log_frontend.o(i.nrf_log_frontend_std_3) for nrf_log_frontend_std_3
    nrf_fstorage.o(i.nrf_fstorage_uninit) refers to nrf_fstorage.o(log_const_data) for log_const_data
    nrf_fstorage.o(i.nrf_fstorage_uninit) refers to nrf_fstorage.o(.constdata) for .constdata
    nrf_fstorage.o(i.nrf_fstorage_write) refers to nrf_log_frontend.o(i.nrf_log_frontend_std_3) for nrf_log_frontend_std_3
    nrf_fstorage.o(i.nrf_fstorage_write) refers to nrf_fstorage.o(log_const_data) for log_const_data
    nrf_fstorage.o(i.nrf_fstorage_write) refers to nrf_fstorage.o(.constdata) for .constdata
    nrf_fstorage.o(log_const_data) refers to nrf_fstorage.o(.conststrlit) for .conststrlit
    nrf_fstorage_sd.o(i.erase) refers to nrf_atfifo.o(i.nrf_atfifo_item_alloc) for nrf_atfifo_item_alloc
    nrf_fstorage_sd.o(i.erase) refers to nrf_atfifo.o(i.nrf_atfifo_item_put) for nrf_atfifo_item_put
    nrf_fstorage_sd.o(i.erase) refers to nrf_atomic.o(i.nrf_atomic_flag_set_fetch) for nrf_atomic_flag_set_fetch
    nrf_fstorage_sd.o(i.erase) refers to nrf_fstorage_sd.o(i.queue_process) for queue_process
    nrf_fstorage_sd.o(i.erase) refers to nrf_fstorage_sd.o(.constdata) for .constdata
    nrf_fstorage_sd.o(i.erase) refers to nrf_fstorage_sd.o(.bss) for .bss
    nrf_fstorage_sd.o(i.init) refers to nrf_atomic.o(i.nrf_atomic_flag_set_fetch) for nrf_atomic_flag_set_fetch
    nrf_fstorage_sd.o(i.init) refers to nrf_sdh.o(i.nrf_sdh_is_enabled) for nrf_sdh_is_enabled
    nrf_fstorage_sd.o(i.init) refers to nrf_atfifo.o(i.nrf_atfifo_init) for nrf_atfifo_init
    nrf_fstorage_sd.o(i.init) refers to nrf_fstorage_sd.o(.constdata) for .constdata
    nrf_fstorage_sd.o(i.init) refers to nrf_fstorage_sd.o(.bss) for .bss
    nrf_fstorage_sd.o(i.is_busy) refers to nrf_fstorage_sd.o(.bss) for .bss
    nrf_fstorage_sd.o(i.nrf_fstorage_sdh_req_handler) refers to nrf_fstorage_sd.o(.bss) for .bss
    nrf_fstorage_sd.o(i.nrf_fstorage_sdh_state_handler) refers to nrf_fstorage_sd.o(i.queue_process) for queue_process
    nrf_fstorage_sd.o(i.nrf_fstorage_sdh_state_handler) refers to nrf_fstorage_sd.o(.bss) for .bss
    nrf_fstorage_sd.o(i.nrf_fstorage_sys_evt_handler) refers to nrf_atfifo.o(i.nrf_atfifo_item_free) for nrf_atfifo_item_free
    nrf_fstorage_sd.o(i.nrf_fstorage_sys_evt_handler) refers to nrf_sdh.o(i.nrf_sdh_request_continue) for nrf_sdh_request_continue
    nrf_fstorage_sd.o(i.nrf_fstorage_sys_evt_handler) refers to nrf_fstorage_sd.o(i.queue_process) for queue_process
    nrf_fstorage_sd.o(i.nrf_fstorage_sys_evt_handler) refers to nrf_fstorage_sd.o(.bss) for .bss
    nrf_fstorage_sd.o(i.nrf_fstorage_sys_evt_handler) refers to nrf_fstorage_sd.o(.data) for .data
    nrf_fstorage_sd.o(i.nrf_fstorage_sys_evt_handler) refers to nrf_fstorage_sd.o(.constdata) for .constdata
    nrf_fstorage_sd.o(i.queue_process) refers to nrf_atfifo.o(i.nrf_atfifo_item_get) for nrf_atfifo_item_get
    nrf_fstorage_sd.o(i.queue_process) refers to nrf_fstorage_sd.o(i.nrf_fstorage_sys_evt_handler) for nrf_fstorage_sys_evt_handler
    nrf_fstorage_sd.o(i.queue_process) refers to nrf_atfifo.o(i.nrf_atfifo_item_free) for nrf_atfifo_item_free
    nrf_fstorage_sd.o(i.queue_process) refers to nrf_fstorage_sd.o(.bss) for .bss
    nrf_fstorage_sd.o(i.queue_process) refers to nrf_fstorage_sd.o(.constdata) for .constdata
    nrf_fstorage_sd.o(i.queue_process) refers to nrf_fstorage_sd.o(.data) for .data
    nrf_fstorage_sd.o(i.read) refers to memcpya.o(.text) for __aeabi_memcpy
    nrf_fstorage_sd.o(i.uninit) refers to nrf_atfifo.o(i.nrf_atfifo_clear) for nrf_atfifo_clear
    nrf_fstorage_sd.o(i.uninit) refers to nrf_fstorage_sd.o(.bss) for .bss
    nrf_fstorage_sd.o(i.uninit) refers to nrf_fstorage_sd.o(.constdata) for .constdata
    nrf_fstorage_sd.o(i.write) refers to nrf_atfifo.o(i.nrf_atfifo_item_alloc) for nrf_atfifo_item_alloc
    nrf_fstorage_sd.o(i.write) refers to nrf_atfifo.o(i.nrf_atfifo_item_put) for nrf_atfifo_item_put
    nrf_fstorage_sd.o(i.write) refers to nrf_atomic.o(i.nrf_atomic_flag_set_fetch) for nrf_atomic_flag_set_fetch
    nrf_fstorage_sd.o(i.write) refers to nrf_fstorage_sd.o(i.queue_process) for queue_process
    nrf_fstorage_sd.o(i.write) refers to nrf_fstorage_sd.o(.constdata) for .constdata
    nrf_fstorage_sd.o(i.write) refers to nrf_fstorage_sd.o(.bss) for .bss
    nrf_fstorage_sd.o(.constdata) refers to nrf_fstorage_sd.o(.bss) for m_fifo_inst
    nrf_fstorage_sd.o(.constdata) refers to nrf_fstorage_sd.o(i.init) for init
    nrf_fstorage_sd.o(.constdata) refers to nrf_fstorage_sd.o(i.uninit) for uninit
    nrf_fstorage_sd.o(.constdata) refers to nrf_fstorage_sd.o(i.read) for read
    nrf_fstorage_sd.o(.constdata) refers to nrf_fstorage_sd.o(i.write) for write
    nrf_fstorage_sd.o(.constdata) refers to nrf_fstorage_sd.o(i.erase) for erase
    nrf_fstorage_sd.o(.constdata) refers to nrf_fstorage_sd.o(i.rmap) for rmap
    nrf_fstorage_sd.o(.constdata) refers to nrf_fstorage_sd.o(i.wmap) for wmap
    nrf_fstorage_sd.o(.constdata) refers to nrf_fstorage_sd.o(i.is_busy) for is_busy
    nrf_fstorage_sd.o(sdh_req_observers0) refers to nrf_fstorage_sd.o(i.nrf_fstorage_sdh_req_handler) for nrf_fstorage_sdh_req_handler
    nrf_fstorage_sd.o(sdh_soc_observers0) refers to nrf_fstorage_sd.o(i.nrf_fstorage_sys_evt_handler) for nrf_fstorage_sys_evt_handler
    nrf_fstorage_sd.o(sdh_state_observers0) refers to nrf_fstorage_sd.o(i.nrf_fstorage_sdh_state_handler) for nrf_fstorage_sdh_state_handler
    nrf_log_backend_rtt.o(i.nrf_log_backend_rtt_init) refers to segger_rtt.o(i.SEGGER_RTT_Init) for SEGGER_RTT_Init
    nrf_log_backend_rtt.o(i.nrf_log_backend_rtt_put) refers to nrf_log_backend_serial.o(i.nrf_log_backend_serial_put) for nrf_log_backend_serial_put
    nrf_log_backend_rtt.o(i.nrf_log_backend_rtt_put) refers to nrf_log_backend_rtt.o(i.serial_tx) for serial_tx
    nrf_log_backend_rtt.o(i.nrf_log_backend_rtt_put) refers to nrf_log_backend_rtt.o(.bss) for .bss
    nrf_log_backend_rtt.o(i.serial_tx) refers to segger_rtt.o(i.SEGGER_RTT_WriteNoLock) for SEGGER_RTT_WriteNoLock
    nrf_log_backend_rtt.o(i.serial_tx) refers to nrf_log_backend_rtt.o(.constdata) for .constdata
    nrf_log_backend_rtt.o(i.serial_tx) refers to nrf_log_backend_rtt.o(.data) for .data
    nrf_log_backend_rtt.o(.constdata) refers to nrf_log_backend_rtt.o(i.nrf_log_backend_rtt_put) for nrf_log_backend_rtt_put
    nrf_log_backend_rtt.o(.constdata) refers to nrf_log_backend_rtt.o(i.nrf_log_backend_rtt_panic_set) for nrf_log_backend_rtt_panic_set
    nrf_log_backend_rtt.o(.constdata) refers to nrf_log_backend_rtt.o(i.nrf_log_backend_rtt_flush) for nrf_log_backend_rtt_flush
    nrf_log_backend_serial.o(i.nrf_log_backend_serial_put) refers to nrf_memobj.o(i.nrf_memobj_get) for nrf_memobj_get
    nrf_log_backend_serial.o(i.nrf_log_backend_serial_put) refers to nrf_memobj.o(i.nrf_memobj_read) for nrf_memobj_read
    nrf_log_backend_serial.o(i.nrf_log_backend_serial_put) refers to nrf_log_str_formatter.o(i.nrf_log_std_entry_process) for nrf_log_std_entry_process
    nrf_log_backend_serial.o(i.nrf_log_backend_serial_put) refers to nrf_log_str_formatter.o(i.nrf_log_hexdump_entry_process) for nrf_log_hexdump_entry_process
    nrf_log_backend_serial.o(i.nrf_log_backend_serial_put) refers to nrf_memobj.o(i.nrf_memobj_put) for nrf_memobj_put
    nrf_log_default_backends.o(i.nrf_log_default_backends_init) refers to nrf_log_backend_rtt.o(i.nrf_log_backend_rtt_init) for nrf_log_backend_rtt_init
    nrf_log_default_backends.o(i.nrf_log_default_backends_init) refers to nrf_log_frontend.o(i.nrf_log_backend_add) for nrf_log_backend_add
    nrf_log_default_backends.o(i.nrf_log_default_backends_init) refers to nrf_log_default_backends.o(log_backends) for log_backends
    nrf_log_default_backends.o(i.nrf_log_default_backends_init) refers to nrf_log_default_backends.o(.data) for .data
    nrf_log_default_backends.o(log_backends) refers to nrf_log_backend_rtt.o(.constdata) for nrf_log_backend_rtt_api
    nrf_log_default_backends.o(log_backends) refers to nrf_log_default_backends.o(.conststrlit) for .conststrlit
    nrf_log_default_backends.o(log_backends) refers to nrf_log_default_backends.o(.data) for log_backend_cb_rtt_log_backend
    nrf_log_frontend.o(i.buf_prealloc) refers to app_util_platform.o(i.app_util_critical_region_enter) for app_util_critical_region_enter
    nrf_log_frontend.o(i.buf_prealloc) refers to nrf_atomic.o(i.nrf_atomic_u32_add) for nrf_atomic_u32_add
    nrf_log_frontend.o(i.buf_prealloc) refers to nrf_atomic.o(i.nrf_atomic_flag_set) for nrf_atomic_flag_set
    nrf_log_frontend.o(i.buf_prealloc) refers to nrf_atomic.o(i.nrf_atomic_flag_clear_fetch) for nrf_atomic_flag_clear_fetch
    nrf_log_frontend.o(i.buf_prealloc) refers to app_util_platform.o(i.app_util_critical_region_exit) for app_util_critical_region_exit
    nrf_log_frontend.o(i.buf_prealloc) refers to nrf_log_frontend.o(.bss) for .bss
    nrf_log_frontend.o(i.buf_prealloc) refers to nrf_log_frontend.o(.data) for .data
    nrf_log_frontend.o(i.buffer_is_empty) refers to nrf_log_frontend.o(.bss) for .bss
    nrf_log_frontend.o(i.nrf_log_backend_add) refers to nrf_log_frontend.o(.bss) for .bss
    nrf_log_frontend.o(i.nrf_log_backend_remove) refers to nrf_log_frontend.o(.bss) for .bss
    nrf_log_frontend.o(i.nrf_log_frontend_dequeue) refers to nrf_memobj.o(i.nrf_memobj_alloc) for nrf_memobj_alloc
    nrf_log_frontend.o(i.nrf_log_frontend_dequeue) refers to nrf_memobj.o(i.nrf_memobj_get) for nrf_memobj_get
    nrf_log_frontend.o(i.nrf_log_frontend_dequeue) refers to nrf_memobj.o(i.nrf_memobj_write) for nrf_memobj_write
    nrf_log_frontend.o(i.nrf_log_frontend_dequeue) refers to nrf_memobj.o(i.nrf_memobj_put) for nrf_memobj_put
    nrf_log_frontend.o(i.nrf_log_frontend_dequeue) refers to app_util_platform.o(i.app_util_critical_region_enter) for app_util_critical_region_enter
    nrf_log_frontend.o(i.nrf_log_frontend_dequeue) refers to app_util_platform.o(i.app_util_critical_region_exit) for app_util_critical_region_exit
    nrf_log_frontend.o(i.nrf_log_frontend_dequeue) refers to nrf_log_frontend.o(i.std_n) for std_n
    nrf_log_frontend.o(i.nrf_log_frontend_dequeue) refers to nrf_log_frontend.o(.bss) for .bss
    nrf_log_frontend.o(i.nrf_log_frontend_dequeue) refers to nrf_log_frontend.o(.data) for .data
    nrf_log_frontend.o(i.nrf_log_frontend_dequeue) refers to nrf_log_frontend.o(nrf_balloc) for nrf_balloc
    nrf_log_frontend.o(i.nrf_log_frontend_dequeue) refers to nrf_log_frontend.o(log_const_data) for log_const_data
    nrf_log_frontend.o(i.nrf_log_frontend_hexdump) refers to nrf_log_frontend.o(i.buf_prealloc) for buf_prealloc
    nrf_log_frontend.o(i.nrf_log_frontend_hexdump) refers to memcpya.o(.text) for __aeabi_memcpy
    nrf_log_frontend.o(i.nrf_log_frontend_hexdump) refers to nrf_atomic.o(i.nrf_atomic_u32_fetch_store) for nrf_atomic_u32_fetch_store
    nrf_log_frontend.o(i.nrf_log_frontend_hexdump) refers to nrf_log_frontend.o(i.nrf_log_frontend_dequeue) for nrf_log_frontend_dequeue
    nrf_log_frontend.o(i.nrf_log_frontend_hexdump) refers to nrf_log_frontend.o(i.log_pending_hook) for log_pending_hook
    nrf_log_frontend.o(i.nrf_log_frontend_hexdump) refers to nrf_log_frontend.o(.data) for .data
    nrf_log_frontend.o(i.nrf_log_frontend_hexdump) refers to nrf_log_frontend.o(.bss) for .bss
    nrf_log_frontend.o(i.nrf_log_frontend_std_0) refers to nrf_log_frontend.o(i.std_n) for std_n
    nrf_log_frontend.o(i.nrf_log_frontend_std_1) refers to nrf_log_frontend.o(i.std_n) for std_n
    nrf_log_frontend.o(i.nrf_log_frontend_std_2) refers to nrf_log_frontend.o(i.std_n) for std_n
    nrf_log_frontend.o(i.nrf_log_frontend_std_3) refers to nrf_log_frontend.o(i.std_n) for std_n
    nrf_log_frontend.o(i.nrf_log_frontend_std_4) refers to nrf_log_frontend.o(i.std_n) for std_n
    nrf_log_frontend.o(i.nrf_log_frontend_std_5) refers to nrf_log_frontend.o(i.std_n) for std_n
    nrf_log_frontend.o(i.nrf_log_frontend_std_6) refers to nrf_log_frontend.o(i.std_n) for std_n
    nrf_log_frontend.o(i.nrf_log_init) refers to nrf_memobj.o(i.nrf_memobj_pool_init) for nrf_memobj_pool_init
    nrf_log_frontend.o(i.nrf_log_init) refers to nrf_ringbuf.o(i.nrf_ringbuf_init) for nrf_ringbuf_init
    nrf_log_frontend.o(i.nrf_log_init) refers to nrf_log_frontend.o(.bss) for .bss
    nrf_log_frontend.o(i.nrf_log_init) refers to nrf_log_frontend.o(nrf_balloc) for nrf_balloc
    nrf_log_frontend.o(i.nrf_log_init) refers to nrf_log_frontend.o(.constdata) for .constdata
    nrf_log_frontend.o(i.nrf_log_panic) refers to nrf_log_frontend.o(.bss) for .bss
    nrf_log_frontend.o(i.nrf_log_push) refers to strlen.o(.text) for strlen
    nrf_log_frontend.o(i.nrf_log_push) refers to nrf_ringbuf.o(i.nrf_ringbuf_alloc) for nrf_ringbuf_alloc
    nrf_log_frontend.o(i.nrf_log_push) refers to memcpya.o(.text) for __aeabi_memcpy
    nrf_log_frontend.o(i.nrf_log_push) refers to nrf_ringbuf.o(i.nrf_ringbuf_put) for nrf_ringbuf_put
    nrf_log_frontend.o(i.nrf_log_push) refers to nrf_ringbuf.o(i.nrf_ringbuf_free) for nrf_ringbuf_free
    nrf_log_frontend.o(i.nrf_log_push) refers to nrf_log_frontend.o(.bss) for .bss
    nrf_log_frontend.o(i.nrf_log_push) refers to nrf_log_frontend.o(.constdata) for .constdata
    nrf_log_frontend.o(i.std_n) refers to nrf_log_frontend.o(i.buf_prealloc) for buf_prealloc
    nrf_log_frontend.o(i.std_n) refers to nrf_atomic.o(i.nrf_atomic_u32_fetch_store) for nrf_atomic_u32_fetch_store
    nrf_log_frontend.o(i.std_n) refers to nrf_log_frontend.o(i.nrf_log_frontend_dequeue) for nrf_log_frontend_dequeue
    nrf_log_frontend.o(i.std_n) refers to nrf_log_frontend.o(i.log_pending_hook) for log_pending_hook
    nrf_log_frontend.o(i.std_n) refers to nrf_log_frontend.o(.data) for .data
    nrf_log_frontend.o(i.std_n) refers to nrf_log_frontend.o(.bss) for .bss
    nrf_log_frontend.o(.constdata) refers to nrf_log_frontend.o(.bss) for m_log_push_ringbuf_buf
    nrf_log_frontend.o(.constdata) refers to nrf_log_frontend.o(.bss) for m_log_push_ringbuf_cb
    nrf_log_frontend.o(log_const_data) refers to nrf_log_frontend.o(.conststrlit) for .conststrlit
    nrf_log_frontend.o(nrf_balloc) refers to nrf_log_frontend.o(.data) for log_mempool_nrf_balloc_cb
    nrf_log_frontend.o(nrf_balloc) refers to nrf_log_frontend.o(.data) for log_mempool_nrf_balloc_pool_stack
    nrf_log_frontend.o(nrf_balloc) refers to nrf_log_frontend.o(.bss) for log_mempool_nrf_balloc_pool_mem
    nrf_log_str_formatter.o(i.nrf_log_hexdump_entry_process) refers to nrf_fprintf.o(i.nrf_fprintf) for nrf_fprintf
    nrf_log_str_formatter.o(i.nrf_log_hexdump_entry_process) refers to nrf_log_frontend.o(i.nrf_log_color_id_get) for nrf_log_color_id_get
    nrf_log_str_formatter.o(i.nrf_log_hexdump_entry_process) refers to nrf_log_frontend.o(i.nrf_log_module_name_get) for nrf_log_module_name_get
    nrf_log_str_formatter.o(i.nrf_log_hexdump_entry_process) refers to ctype_o.o(.text) for __rt_ctype_table
    nrf_log_str_formatter.o(i.nrf_log_hexdump_entry_process) refers to nrf_fprintf.o(i.nrf_fprintf_buffer_flush) for nrf_fprintf_buffer_flush
    nrf_log_str_formatter.o(i.nrf_log_hexdump_entry_process) refers to nrf_log_str_formatter.o(i.nrf_log_std_entry_process) for i.nrf_log_std_entry_process
    nrf_log_str_formatter.o(i.nrf_log_hexdump_entry_process) refers to nrf_log_str_formatter.o(.data) for .data
    nrf_log_str_formatter.o(i.nrf_log_std_entry_process) refers to nrf_fprintf.o(i.nrf_fprintf) for nrf_fprintf
    nrf_log_str_formatter.o(i.nrf_log_std_entry_process) refers to nrf_log_frontend.o(i.nrf_log_color_id_get) for nrf_log_color_id_get
    nrf_log_str_formatter.o(i.nrf_log_std_entry_process) refers to nrf_log_frontend.o(i.nrf_log_module_name_get) for nrf_log_module_name_get
    nrf_log_str_formatter.o(i.nrf_log_std_entry_process) refers to nrf_fprintf.o(i.nrf_fprintf_buffer_flush) for nrf_fprintf_buffer_flush
    nrf_log_str_formatter.o(i.nrf_log_std_entry_process) refers to nrf_log_str_formatter.o(.data) for .data
    nrf_log_str_formatter.o(i.nrf_log_str_formatter_timestamp_freq_set) refers to nrf_log_str_formatter.o(.data) for .data
    nrf_log_str_formatter.o(.data) refers to nrf_log_str_formatter.o(.conststring) for .conststring
    segger_rtt.o(i.SEGGER_RTT_AllocDownBuffer) refers to segger_rtt.o(i._DoInit) for _DoInit
    segger_rtt.o(i.SEGGER_RTT_AllocDownBuffer) refers to app_util_platform.o(i.app_util_critical_region_enter) for app_util_critical_region_enter
    segger_rtt.o(i.SEGGER_RTT_AllocDownBuffer) refers to app_util_platform.o(i.app_util_critical_region_exit) for app_util_critical_region_exit
    segger_rtt.o(i.SEGGER_RTT_AllocDownBuffer) refers to segger_rtt.o(.bss) for .bss
    segger_rtt.o(i.SEGGER_RTT_AllocUpBuffer) refers to segger_rtt.o(i._DoInit) for _DoInit
    segger_rtt.o(i.SEGGER_RTT_AllocUpBuffer) refers to app_util_platform.o(i.app_util_critical_region_enter) for app_util_critical_region_enter
    segger_rtt.o(i.SEGGER_RTT_AllocUpBuffer) refers to app_util_platform.o(i.app_util_critical_region_exit) for app_util_critical_region_exit
    segger_rtt.o(i.SEGGER_RTT_AllocUpBuffer) refers to segger_rtt.o(.bss) for .bss
    segger_rtt.o(i.SEGGER_RTT_ConfigDownBuffer) refers to segger_rtt.o(i._DoInit) for _DoInit
    segger_rtt.o(i.SEGGER_RTT_ConfigDownBuffer) refers to app_util_platform.o(i.app_util_critical_region_enter) for app_util_critical_region_enter
    segger_rtt.o(i.SEGGER_RTT_ConfigDownBuffer) refers to app_util_platform.o(i.app_util_critical_region_exit) for app_util_critical_region_exit
    segger_rtt.o(i.SEGGER_RTT_ConfigDownBuffer) refers to segger_rtt.o(.bss) for .bss
    segger_rtt.o(i.SEGGER_RTT_ConfigUpBuffer) refers to segger_rtt.o(i._DoInit) for _DoInit
    segger_rtt.o(i.SEGGER_RTT_ConfigUpBuffer) refers to app_util_platform.o(i.app_util_critical_region_enter) for app_util_critical_region_enter
    segger_rtt.o(i.SEGGER_RTT_ConfigUpBuffer) refers to app_util_platform.o(i.app_util_critical_region_exit) for app_util_critical_region_exit
    segger_rtt.o(i.SEGGER_RTT_ConfigUpBuffer) refers to segger_rtt.o(.bss) for .bss
    segger_rtt.o(i.SEGGER_RTT_GetKey) refers to app_util_platform.o(i.app_util_critical_region_enter) for app_util_critical_region_enter
    segger_rtt.o(i.SEGGER_RTT_GetKey) refers to segger_rtt.o(i._DoInit) for _DoInit
    segger_rtt.o(i.SEGGER_RTT_GetKey) refers to memcpya.o(.text) for __aeabi_memcpy
    segger_rtt.o(i.SEGGER_RTT_GetKey) refers to app_util_platform.o(i.app_util_critical_region_exit) for app_util_critical_region_exit
    segger_rtt.o(i.SEGGER_RTT_GetKey) refers to segger_rtt.o(.bss) for .bss
    segger_rtt.o(i.SEGGER_RTT_HasData) refers to segger_rtt.o(.bss) for .bss
    segger_rtt.o(i.SEGGER_RTT_HasKey) refers to segger_rtt.o(i._DoInit) for _DoInit
    segger_rtt.o(i.SEGGER_RTT_HasKey) refers to segger_rtt.o(.bss) for .bss
    segger_rtt.o(i.SEGGER_RTT_Init) refers to segger_rtt.o(i._DoInit) for _DoInit
    segger_rtt.o(i.SEGGER_RTT_PutChar) refers to segger_rtt.o(i._DoInit) for _DoInit
    segger_rtt.o(i.SEGGER_RTT_PutChar) refers to app_util_platform.o(i.app_util_critical_region_enter) for app_util_critical_region_enter
    segger_rtt.o(i.SEGGER_RTT_PutChar) refers to app_util_platform.o(i.app_util_critical_region_exit) for app_util_critical_region_exit
    segger_rtt.o(i.SEGGER_RTT_PutChar) refers to segger_rtt.o(.bss) for .bss
    segger_rtt.o(i.SEGGER_RTT_PutCharSkip) refers to segger_rtt.o(i._DoInit) for _DoInit
    segger_rtt.o(i.SEGGER_RTT_PutCharSkip) refers to app_util_platform.o(i.app_util_critical_region_enter) for app_util_critical_region_enter
    segger_rtt.o(i.SEGGER_RTT_PutCharSkip) refers to app_util_platform.o(i.app_util_critical_region_exit) for app_util_critical_region_exit
    segger_rtt.o(i.SEGGER_RTT_PutCharSkip) refers to segger_rtt.o(.bss) for .bss
    segger_rtt.o(i.SEGGER_RTT_PutCharSkipNoLock) refers to segger_rtt.o(.bss) for .bss
    segger_rtt.o(i.SEGGER_RTT_Read) refers to app_util_platform.o(i.app_util_critical_region_enter) for app_util_critical_region_enter
    segger_rtt.o(i.SEGGER_RTT_Read) refers to segger_rtt.o(i._DoInit) for _DoInit
    segger_rtt.o(i.SEGGER_RTT_Read) refers to memcpya.o(.text) for __aeabi_memcpy
    segger_rtt.o(i.SEGGER_RTT_Read) refers to app_util_platform.o(i.app_util_critical_region_exit) for app_util_critical_region_exit
    segger_rtt.o(i.SEGGER_RTT_Read) refers to segger_rtt.o(.bss) for .bss
    segger_rtt.o(i.SEGGER_RTT_ReadNoLock) refers to segger_rtt.o(i._DoInit) for _DoInit
    segger_rtt.o(i.SEGGER_RTT_ReadNoLock) refers to memcpya.o(.text) for __aeabi_memcpy
    segger_rtt.o(i.SEGGER_RTT_ReadNoLock) refers to segger_rtt.o(.bss) for .bss
    segger_rtt.o(i.SEGGER_RTT_SetFlagsDownBuffer) refers to segger_rtt.o(i._DoInit) for _DoInit
    segger_rtt.o(i.SEGGER_RTT_SetFlagsDownBuffer) refers to app_util_platform.o(i.app_util_critical_region_enter) for app_util_critical_region_enter
    segger_rtt.o(i.SEGGER_RTT_SetFlagsDownBuffer) refers to app_util_platform.o(i.app_util_critical_region_exit) for app_util_critical_region_exit
    segger_rtt.o(i.SEGGER_RTT_SetFlagsDownBuffer) refers to segger_rtt.o(.bss) for .bss
    segger_rtt.o(i.SEGGER_RTT_SetFlagsUpBuffer) refers to segger_rtt.o(i._DoInit) for _DoInit
    segger_rtt.o(i.SEGGER_RTT_SetFlagsUpBuffer) refers to app_util_platform.o(i.app_util_critical_region_enter) for app_util_critical_region_enter
    segger_rtt.o(i.SEGGER_RTT_SetFlagsUpBuffer) refers to app_util_platform.o(i.app_util_critical_region_exit) for app_util_critical_region_exit
    segger_rtt.o(i.SEGGER_RTT_SetFlagsUpBuffer) refers to segger_rtt.o(.bss) for .bss
    segger_rtt.o(i.SEGGER_RTT_SetNameDownBuffer) refers to segger_rtt.o(i._DoInit) for _DoInit
    segger_rtt.o(i.SEGGER_RTT_SetNameDownBuffer) refers to app_util_platform.o(i.app_util_critical_region_enter) for app_util_critical_region_enter
    segger_rtt.o(i.SEGGER_RTT_SetNameDownBuffer) refers to app_util_platform.o(i.app_util_critical_region_exit) for app_util_critical_region_exit
    segger_rtt.o(i.SEGGER_RTT_SetNameDownBuffer) refers to segger_rtt.o(.bss) for .bss
    segger_rtt.o(i.SEGGER_RTT_SetNameUpBuffer) refers to segger_rtt.o(i._DoInit) for _DoInit
    segger_rtt.o(i.SEGGER_RTT_SetNameUpBuffer) refers to app_util_platform.o(i.app_util_critical_region_enter) for app_util_critical_region_enter
    segger_rtt.o(i.SEGGER_RTT_SetNameUpBuffer) refers to app_util_platform.o(i.app_util_critical_region_exit) for app_util_critical_region_exit
    segger_rtt.o(i.SEGGER_RTT_SetNameUpBuffer) refers to segger_rtt.o(.bss) for .bss
    segger_rtt.o(i.SEGGER_RTT_SetTerminal) refers to segger_rtt.o(i._DoInit) for _DoInit
    segger_rtt.o(i.SEGGER_RTT_SetTerminal) refers to app_util_platform.o(i.app_util_critical_region_enter) for app_util_critical_region_enter
    segger_rtt.o(i.SEGGER_RTT_SetTerminal) refers to memcpya.o(.text) for __aeabi_memcpy
    segger_rtt.o(i.SEGGER_RTT_SetTerminal) refers to segger_rtt.o(i._WriteBlocking) for _WriteBlocking
    segger_rtt.o(i.SEGGER_RTT_SetTerminal) refers to app_util_platform.o(i.app_util_critical_region_exit) for app_util_critical_region_exit
    segger_rtt.o(i.SEGGER_RTT_SetTerminal) refers to segger_rtt.o(.bss) for .bss
    segger_rtt.o(i.SEGGER_RTT_SetTerminal) refers to segger_rtt.o(.data) for .data
    segger_rtt.o(i.SEGGER_RTT_TerminalOut) refers to segger_rtt.o(i._DoInit) for _DoInit
    segger_rtt.o(i.SEGGER_RTT_TerminalOut) refers to strlen.o(.text) for strlen
    segger_rtt.o(i.SEGGER_RTT_TerminalOut) refers to app_util_platform.o(i.app_util_critical_region_enter) for app_util_critical_region_enter
    segger_rtt.o(i.SEGGER_RTT_TerminalOut) refers to segger_rtt.o(i._WriteBlocking) for _WriteBlocking
    segger_rtt.o(i.SEGGER_RTT_TerminalOut) refers to app_util_platform.o(i.app_util_critical_region_exit) for app_util_critical_region_exit
    segger_rtt.o(i.SEGGER_RTT_TerminalOut) refers to segger_rtt.o(.bss) for .bss
    segger_rtt.o(i.SEGGER_RTT_TerminalOut) refers to segger_rtt.o(.data) for .data
    segger_rtt.o(i.SEGGER_RTT_WaitKey) refers to app_util_platform.o(i.app_util_critical_region_enter) for app_util_critical_region_enter
    segger_rtt.o(i.SEGGER_RTT_WaitKey) refers to segger_rtt.o(i._DoInit) for _DoInit
    segger_rtt.o(i.SEGGER_RTT_WaitKey) refers to memcpya.o(.text) for __aeabi_memcpy
    segger_rtt.o(i.SEGGER_RTT_WaitKey) refers to app_util_platform.o(i.app_util_critical_region_exit) for app_util_critical_region_exit
    segger_rtt.o(i.SEGGER_RTT_WaitKey) refers to segger_rtt.o(.bss) for .bss
    segger_rtt.o(i.SEGGER_RTT_Write) refers to segger_rtt.o(i._DoInit) for _DoInit
    segger_rtt.o(i.SEGGER_RTT_Write) refers to app_util_platform.o(i.app_util_critical_region_enter) for app_util_critical_region_enter
    segger_rtt.o(i.SEGGER_RTT_Write) refers to segger_rtt.o(i.SEGGER_RTT_WriteNoLock) for SEGGER_RTT_WriteNoLock
    segger_rtt.o(i.SEGGER_RTT_Write) refers to app_util_platform.o(i.app_util_critical_region_exit) for app_util_critical_region_exit
    segger_rtt.o(i.SEGGER_RTT_Write) refers to segger_rtt.o(.bss) for .bss
    segger_rtt.o(i.SEGGER_RTT_WriteNoLock) refers to memcpya.o(.text) for __aeabi_memcpy
    segger_rtt.o(i.SEGGER_RTT_WriteNoLock) refers to segger_rtt.o(i._WriteBlocking) for _WriteBlocking
    segger_rtt.o(i.SEGGER_RTT_WriteNoLock) refers to segger_rtt.o(.bss) for .bss
    segger_rtt.o(i.SEGGER_RTT_WriteSkipNoLock) refers to memcpya.o(.text) for __aeabi_memcpy
    segger_rtt.o(i.SEGGER_RTT_WriteSkipNoLock) refers to segger_rtt.o(.bss) for .bss
    segger_rtt.o(i.SEGGER_RTT_WriteString) refers to strlen.o(.text) for strlen
    segger_rtt.o(i.SEGGER_RTT_WriteString) refers to segger_rtt.o(i._DoInit) for _DoInit
    segger_rtt.o(i.SEGGER_RTT_WriteString) refers to app_util_platform.o(i.app_util_critical_region_enter) for app_util_critical_region_enter
    segger_rtt.o(i.SEGGER_RTT_WriteString) refers to segger_rtt.o(i.SEGGER_RTT_WriteNoLock) for SEGGER_RTT_WriteNoLock
    segger_rtt.o(i.SEGGER_RTT_WriteString) refers to app_util_platform.o(i.app_util_critical_region_exit) for app_util_critical_region_exit
    segger_rtt.o(i.SEGGER_RTT_WriteString) refers to segger_rtt.o(.bss) for .bss
    segger_rtt.o(i.SEGGER_RTT_WriteWithOverwriteNoLock) refers to memcpya.o(.text) for __aeabi_memcpy
    segger_rtt.o(i.SEGGER_RTT_WriteWithOverwriteNoLock) refers to segger_rtt.o(.bss) for .bss
    segger_rtt.o(i._DoInit) refers to segger_rtt.o(i.__ARM_common_memcpy4_7) for __ARM_common_memcpy4_7
    segger_rtt.o(i._DoInit) refers to segger_rtt.o(.bss) for .bss
    segger_rtt.o(i._WriteBlocking) refers to memcpya.o(.text) for __aeabi_memcpy
    segger_rtt_syscalls_keil.o(i._sys_open) refers to strcmp.o(.text) for strcmp
    segger_rtt_syscalls_keil.o(i._sys_open) refers to segger_rtt_syscalls_keil.o(.constdata) for .constdata
    segger_rtt_syscalls_keil.o(i._sys_write) refers to segger_rtt.o(i.SEGGER_RTT_Write) for SEGGER_RTT_Write
    segger_rtt_syscalls_keil.o(i._ttywrch) refers to fputc.o(i.fputc) for fputc
    segger_rtt_syscalls_keil.o(i._ttywrch) refers to fflush.o(.text) for fflush
    segger_rtt_syscalls_keil.o(i._ttywrch) refers to stdout.o(.data) for __stdout
    segger_rtt_printf.o(i.SEGGER_RTT_printf) refers to segger_rtt_printf.o(i.SEGGER_RTT_vprintf) for SEGGER_RTT_vprintf
    segger_rtt_printf.o(i.SEGGER_RTT_vprintf) refers to segger_rtt_printf.o(i._StoreChar) for _StoreChar
    segger_rtt_printf.o(i.SEGGER_RTT_vprintf) refers to segger_rtt_printf.o(i._PrintUnsigned) for _PrintUnsigned
    segger_rtt_printf.o(i.SEGGER_RTT_vprintf) refers to segger_rtt.o(i.SEGGER_RTT_Write) for SEGGER_RTT_Write
    segger_rtt_printf.o(i._PrintUnsigned) refers to segger_rtt_printf.o(i._StoreChar) for _StoreChar
    segger_rtt_printf.o(i._PrintUnsigned) refers to segger_rtt_printf.o(.constdata) for .constdata
    segger_rtt_printf.o(i._StoreChar) refers to segger_rtt.o(i.SEGGER_RTT_Write) for SEGGER_RTT_Write
    nrf_sdh.o(i.SWI2_IRQHandler) refers to nrf_section_iter.o(i.nrf_section_iter_init) for nrf_section_iter_init
    nrf_sdh.o(i.SWI2_IRQHandler) refers to nrf_section_iter.o(i.nrf_section_iter_next) for nrf_section_iter_next
    nrf_sdh.o(i.SWI2_IRQHandler) refers to nrf_sdh.o(.constdata) for .constdata
    nrf_sdh.o(i.nrf_sdh_disable_request) refers to nrf_log_frontend.o(i.nrf_log_frontend_std_1) for nrf_log_frontend_std_1
    nrf_sdh.o(i.nrf_sdh_disable_request) refers to nrf_section_iter.o(i.nrf_section_iter_init) for nrf_section_iter_init
    nrf_sdh.o(i.nrf_sdh_disable_request) refers to nrf_section_iter.o(i.nrf_section_iter_next) for nrf_section_iter_next
    nrf_sdh.o(i.nrf_sdh_disable_request) refers to app_util_platform.o(i.app_util_critical_region_enter) for app_util_critical_region_enter
    nrf_sdh.o(i.nrf_sdh_disable_request) refers to app_util_platform.o(i.app_util_critical_region_exit) for app_util_critical_region_exit
    nrf_sdh.o(i.nrf_sdh_disable_request) refers to nrf_sdh.o(.data) for .data
    nrf_sdh.o(i.nrf_sdh_disable_request) refers to nrf_sdh.o(log_const_data) for log_const_data
    nrf_sdh.o(i.nrf_sdh_disable_request) refers to nrf_sdh.o(i.nrf_sdh_enable_request) for i.nrf_sdh_enable_request
    nrf_sdh.o(i.nrf_sdh_disable_request) refers to nrf_sdh.o(.constdata) for .constdata
    nrf_sdh.o(i.nrf_sdh_disable_request) refers to app_util_platform.o(.bss) for nrf_nvic_state
    nrf_sdh.o(i.nrf_sdh_enable_request) refers to nrf_log_frontend.o(i.nrf_log_frontend_std_1) for nrf_log_frontend_std_1
    nrf_sdh.o(i.nrf_sdh_enable_request) refers to nrf_section_iter.o(i.nrf_section_iter_init) for nrf_section_iter_init
    nrf_sdh.o(i.nrf_sdh_enable_request) refers to nrf_section_iter.o(i.nrf_section_iter_next) for nrf_section_iter_next
    nrf_sdh.o(i.nrf_sdh_enable_request) refers to app_util_platform.o(i.app_util_critical_region_enter) for app_util_critical_region_enter
    nrf_sdh.o(i.nrf_sdh_enable_request) refers to app_util_platform.o(i.app_util_critical_region_exit) for app_util_critical_region_exit
    nrf_sdh.o(i.nrf_sdh_enable_request) refers to app_error_handler_keil.o(.emb_text) for app_error_handler
    nrf_sdh.o(i.nrf_sdh_enable_request) refers to nrf_sdh.o(.data) for .data
    nrf_sdh.o(i.nrf_sdh_enable_request) refers to nrf_sdh.o(log_const_data) for log_const_data
    nrf_sdh.o(i.nrf_sdh_enable_request) refers to nrf_sdh.o(.constdata) for .constdata
    nrf_sdh.o(i.nrf_sdh_enable_request) refers to app_error_weak.o(i.app_error_fault_handler) for app_error_fault_handler
    nrf_sdh.o(i.nrf_sdh_enable_request) refers to app_util_platform.o(.bss) for nrf_nvic_state
    nrf_sdh.o(i.nrf_sdh_evts_poll) refers to nrf_section_iter.o(i.nrf_section_iter_init) for nrf_section_iter_init
    nrf_sdh.o(i.nrf_sdh_evts_poll) refers to nrf_section_iter.o(i.nrf_section_iter_next) for nrf_section_iter_next
    nrf_sdh.o(i.nrf_sdh_evts_poll) refers to nrf_sdh.o(.constdata) for .constdata
    nrf_sdh.o(i.nrf_sdh_is_enabled) refers to nrf_sdh.o(.data) for .data
    nrf_sdh.o(i.nrf_sdh_is_suspended) refers to nrf_sdh.o(.data) for .data
    nrf_sdh.o(i.nrf_sdh_request_continue) refers to nrf_sdh.o(i.nrf_sdh_disable_request) for nrf_sdh_disable_request
    nrf_sdh.o(i.nrf_sdh_request_continue) refers to nrf_sdh.o(i.nrf_sdh_enable_request) for nrf_sdh_enable_request
    nrf_sdh.o(i.nrf_sdh_request_continue) refers to nrf_sdh.o(.data) for .data
    nrf_sdh.o(i.nrf_sdh_resume) refers to app_error_handler_keil.o(.emb_text) for app_error_handler
    nrf_sdh.o(i.nrf_sdh_resume) refers to nrf_sdh.o(.data) for .data
    nrf_sdh.o(i.nrf_sdh_resume) refers to app_util_platform.o(.bss) for nrf_nvic_state
    nrf_sdh.o(i.nrf_sdh_resume) refers to nrf_sdh.o(i.nrf_sdh_enable_request) for i.nrf_sdh_enable_request
    nrf_sdh.o(i.nrf_sdh_suspend) refers to nrf_sdh.o(.data) for .data
    nrf_sdh.o(i.nrf_sdh_suspend) refers to app_util_platform.o(.bss) for nrf_nvic_state
    nrf_sdh.o(.constdata) refers to nrf_sdh.o(.constdata) for sdh_req_observers_array
    nrf_sdh.o(.constdata) refers to nrf_sdh.o(.constdata) for sdh_state_observers_array
    nrf_sdh.o(.constdata) refers to nrf_sdh.o(.constdata) for sdh_stack_observers_array
    nrf_sdh.o(log_const_data) refers to nrf_sdh.o(.conststrlit) for .conststrlit
    nrf_sdh_ble.o(i.nrf_sdh_ble_app_ram_start_get) refers to nrf_sdh_ble.o(.constdata) for .constdata
    nrf_sdh_ble.o(i.nrf_sdh_ble_default_cfg_set) refers to nrf_strerror.o(i.nrf_strerror_get) for nrf_strerror_get
    nrf_sdh_ble.o(i.nrf_sdh_ble_default_cfg_set) refers to nrf_log_frontend.o(i.nrf_log_frontend_std_1) for nrf_log_frontend_std_1
    nrf_sdh_ble.o(i.nrf_sdh_ble_default_cfg_set) refers to nrf_sdh_ble.o(.constdata) for .constdata
    nrf_sdh_ble.o(i.nrf_sdh_ble_default_cfg_set) refers to nrf_sdh_ble.o(log_const_data) for log_const_data
    nrf_sdh_ble.o(i.nrf_sdh_ble_default_cfg_set) refers to nrf_sdh_ble.o(.conststring) for .conststring
    nrf_sdh_ble.o(i.nrf_sdh_ble_enable) refers to nrf_log_frontend.o(i.nrf_log_frontend_std_0) for nrf_log_frontend_std_0
    nrf_sdh_ble.o(i.nrf_sdh_ble_enable) refers to nrf_log_frontend.o(i.nrf_log_frontend_std_2) for nrf_log_frontend_std_2
    nrf_sdh_ble.o(i.nrf_sdh_ble_enable) refers to nrf_log_frontend.o(i.nrf_log_frontend_std_1) for nrf_log_frontend_std_1
    nrf_sdh_ble.o(i.nrf_sdh_ble_enable) refers to nrf_strerror.o(i.nrf_strerror_get) for nrf_strerror_get
    nrf_sdh_ble.o(i.nrf_sdh_ble_enable) refers to nrf_sdh_ble.o(log_const_data) for log_const_data
    nrf_sdh_ble.o(i.nrf_sdh_ble_enable) refers to nrf_sdh_ble.o(.data) for .data
    nrf_sdh_ble.o(i.nrf_sdh_ble_evts_poll) refers to app_error_handler_keil.o(.emb_text) for app_error_handler
    nrf_sdh_ble.o(i.nrf_sdh_ble_evts_poll) refers to nrf_log_frontend.o(i.nrf_log_frontend_std_1) for nrf_log_frontend_std_1
    nrf_sdh_ble.o(i.nrf_sdh_ble_evts_poll) refers to nrf_section_iter.o(i.nrf_section_iter_init) for nrf_section_iter_init
    nrf_sdh_ble.o(i.nrf_sdh_ble_evts_poll) refers to nrf_section_iter.o(i.nrf_section_iter_next) for nrf_section_iter_next
    nrf_sdh_ble.o(i.nrf_sdh_ble_evts_poll) refers to nrf_sdh_ble.o(.data) for .data
    nrf_sdh_ble.o(i.nrf_sdh_ble_evts_poll) refers to nrf_sdh_ble.o(log_const_data) for log_const_data
    nrf_sdh_ble.o(i.nrf_sdh_ble_evts_poll) refers to nrf_sdh_ble.o(.constdata) for .constdata
    nrf_sdh_ble.o(.constdata) refers to nrf_sdh_ble.o(.constdata) for sdh_ble_observers_array
    nrf_sdh_ble.o(log_const_data) refers to nrf_sdh_ble.o(.conststrlit) for .conststrlit
    nrf_sdh_ble.o(sdh_stack_observers0) refers to nrf_sdh_ble.o(i.nrf_sdh_ble_evts_poll) for nrf_sdh_ble_evts_poll
    nrf_sdh_soc.o(i.nrf_sdh_soc_evts_poll) refers to app_error_handler_keil.o(.emb_text) for app_error_handler
    nrf_sdh_soc.o(i.nrf_sdh_soc_evts_poll) refers to nrf_section_iter.o(i.nrf_section_iter_init) for nrf_section_iter_init
    nrf_sdh_soc.o(i.nrf_sdh_soc_evts_poll) refers to nrf_section_iter.o(i.nrf_section_iter_next) for nrf_section_iter_next
    nrf_sdh_soc.o(i.nrf_sdh_soc_evts_poll) refers to nrf_sdh_soc.o(.constdata) for .constdata
    nrf_sdh_soc.o(.constdata) refers to nrf_sdh_soc.o(.constdata) for sdh_soc_observers_array
    nrf_sdh_soc.o(log_const_data) refers to nrf_sdh_soc.o(.conststrlit) for .conststrlit
    nrf_sdh_soc.o(sdh_stack_observers0) refers to nrf_sdh_soc.o(i.nrf_sdh_soc_evts_poll) for nrf_sdh_soc_evts_poll
    arm_startup_nrf52805.o(RESET) refers to arm_startup_nrf52805.o(STACK) for __initial_sp
    arm_startup_nrf52805.o(RESET) refers to arm_startup_nrf52805.o(.text) for Reset_Handler
    arm_startup_nrf52805.o(RESET) refers to nrfx_clock.o(i.POWER_CLOCK_IRQHandler) for POWER_CLOCK_IRQHandler
    arm_startup_nrf52805.o(RESET) refers to nrfx_spi.o(i.SPIM0_SPIS0_SPI0_IRQHandler) for SPIM0_SPIS0_SPI0_IRQHandler
    arm_startup_nrf52805.o(RESET) refers to nrfx_gpiote.o(i.GPIOTE_IRQHandler) for GPIOTE_IRQHandler
    arm_startup_nrf52805.o(RESET) refers to nrfx_saadc.o(i.SAADC_IRQHandler) for SAADC_IRQHandler
    arm_startup_nrf52805.o(RESET) refers to nrfx_rtc.o(i.RTC0_IRQHandler) for RTC0_IRQHandler
    arm_startup_nrf52805.o(RESET) refers to nrfx_wdt.o(i.WDT_IRQHandler) for WDT_IRQHandler
    arm_startup_nrf52805.o(RESET) refers to drv_rtc.o(i.RTC1_IRQHandler) for RTC1_IRQHandler
    arm_startup_nrf52805.o(RESET) refers to nrf_sdh.o(i.SWI2_IRQHandler) for SWI2_IRQHandler
    arm_startup_nrf52805.o(.text) refers to system_nrf52805.o(i.SystemInit) for SystemInit
    arm_startup_nrf52805.o(.text) refers to entry.o(.ARM.Collect$$$$00000000) for __main
    system_nrf52805.o(i.SystemCoreClockUpdate) refers to system_nrf52805.o(.data) for .data
    system_nrf52805.o(i.SystemInit) refers to system_nrf52805.o(.data) for .data
    entry.o(.ARM.Collect$$$$00000000) refers (Special) to entry10a.o(.ARM.Collect$$$$0000000F) for __rt_final_cpp
    entry.o(.ARM.Collect$$$$00000000) refers (Special) to entry11a.o(.ARM.Collect$$$$00000011) for __rt_final_exit
    entry.o(.ARM.Collect$$$$00000000) refers (Special) to entry12b.o(.ARM.Collect$$$$0000000E) for __rt_lib_shutdown_fini
    entry.o(.ARM.Collect$$$$00000000) refers (Special) to entry7b.o(.ARM.Collect$$$$00000008) for _main_clock
    entry.o(.ARM.Collect$$$$00000000) refers (Special) to entry8b.o(.ARM.Collect$$$$0000000A) for _main_cpp_init
    entry.o(.ARM.Collect$$$$00000000) refers (Special) to entry9a.o(.ARM.Collect$$$$0000000B) for _main_init
    entry.o(.ARM.Collect$$$$00000000) refers (Special) to entry5.o(.ARM.Collect$$$$00000004) for _main_scatterload
    entry.o(.ARM.Collect$$$$00000000) refers (Special) to entry2.o(.ARM.Collect$$$$00000001) for _main_stk
    fputc.o(i.fputc) refers (Special) to iusesemip.o(.text) for __I$use$semihosting$fputc
    fputc.o(i.fputc) refers (Special) to semi.o(.text) for __semihosting_library_function
    uldiv.o(.text) refers to llushr.o(.text) for __aeabi_llsr
    uldiv.o(.text) refers to llshl.o(.text) for __aeabi_llsl
    ctype_o.o(.text) refers to ctype_o.o(.constdata) for .constdata
    ctype_o.o(.constdata) refers to ctype_o.o(.constdata) for __ctype_table
    isalnum_o.o(.text) refers to ctype_o.o(.text) for __rt_ctype_table
    isalpha_o.o(.text) refers to ctype_o.o(.text) for __rt_ctype_table
    isblank_o.o(.text) refers to ctype_o.o(.constdata) for __ctype_table
    iscntrl_o.o(.text) refers to ctype_o.o(.text) for __rt_ctype_table
    isdigit_o.o(.text) refers to ctype_o.o(.text) for __rt_ctype_table
    isgraph_o.o(.text) refers to ctype_o.o(.text) for __rt_ctype_table
    islower_o.o(.text) refers to ctype_o.o(.text) for __rt_ctype_table
    isprint_o.o(.text) refers to ctype_o.o(.text) for __rt_ctype_table
    ispunct_o.o(.text) refers to ctype_o.o(.text) for __rt_ctype_table
    isspace_o.o(.text) refers to ctype_o.o(.text) for __rt_ctype_table
    isupper_o.o(.text) refers to ctype_o.o(.text) for __rt_ctype_table
    isxdigit_o.o(.text) refers to ctype_o.o(.text) for __rt_ctype_table
    dmul.o(.text) refers (Special) to iusefp.o(.text) for __I$use$fp
    dmul.o(.text) refers to depilogue.o(.text) for _double_epilogue
    ddiv.o(.text) refers (Special) to iusefp.o(.text) for __I$use$fp
    ddiv.o(.text) refers to depilogue.o(.text) for _double_round
    dscalb.o(.text) refers (Special) to iusefp.o(.text) for __I$use$fp
    dflti.o(.text) refers (Special) to iusefp.o(.text) for __I$use$fp
    dflti.o(.text) refers to depilogue.o(.text) for _double_epilogue
    dfltui.o(.text) refers (Special) to iusefp.o(.text) for __I$use$fp
    dfltui.o(.text) refers to depilogue.o(.text) for _double_epilogue
    dfixui.o(.text) refers (Special) to iusefp.o(.text) for __I$use$fp
    dfixui.o(.text) refers to llushr.o(.text) for __aeabi_llsr
    entry2.o(.ARM.Collect$$$$00000001) refers to entry2.o(.ARM.Collect$$$$00002712) for __lit__00000000
    entry2.o(.ARM.Collect$$$$00002712) refers to arm_startup_nrf52805.o(STACK) for __initial_sp
    entry2.o(__vectab_stack_and_reset_area) refers to arm_startup_nrf52805.o(STACK) for __initial_sp
    entry2.o(__vectab_stack_and_reset_area) refers to entry.o(.ARM.Collect$$$$00000000) for __main
    entry5.o(.ARM.Collect$$$$00000004) refers to init.o(.text) for __scatterload
    entry9a.o(.ARM.Collect$$$$0000000B) refers to main.o(i.main) for main
    entry9b.o(.ARM.Collect$$$$0000000C) refers to main.o(i.main) for main
    depilogue.o(.text) refers to llshl.o(.text) for __aeabi_llsl
    depilogue.o(.text) refers to llushr.o(.text) for __aeabi_llsr
    init.o(.text) refers to entry5.o(.ARM.Collect$$$$00000004) for __main_after_scatterload


==============================================================================

Removing Unused input sections from the image.

    Removing main.o(.rev16_text), (4 bytes).
    Removing main.o(.revsh_text), (4 bytes).
    Removing main.o(.rrx_text), (6 bytes).
    Removing main.o(i.app_close_bmi160_acc), (8 bytes).
    Removing main.o(i.app_close_bmi160_fifo), (4 bytes).
    Removing main.o(i.app_close_bmi160_gyro), (8 bytes).
    Removing main.o(i.app_open_bmi160_acc), (24 bytes).
    Removing main.o(i.app_open_bmi160_gyro), (20 bytes).
    Removing main.o(i.app_open_bmi160_no_motion), (276 bytes).
    Removing main.o(i.app_open_bmi160_tap), (264 bytes).
    Removing main.o(i.assert_nrf_callback), (16 bytes).
    Removing main.o(i.bmi160_get_mag_data), (188 bytes).
    Removing main.o(i.bmi160_timer_callback), (12 bytes).
    Removing main.o(i.bsp_event_handler), (172 bytes).
    Removing main.o(i.check_flash_data_is_valid), (30 bytes).
    Removing main.o(i.endian_transfer), (42 bytes).
    Removing main.o(i.erase_save_sensor_flash_sector), (36 bytes).
    Removing main.o(i.gatt_init), (64 bytes).
    Removing main.o(i.print_bmi160_int_status), (576 bytes).
    Removing main.o(i.print_bmi160_rslt), (832 bytes).
    Removing main.o(i.saadc_init), (84 bytes).
    Removing main.o(i.spi_disable), (12 bytes).
    Removing main.o(i.spi_enable), (96 bytes).
    Removing main.o(i.spi_master_init), (108 bytes).
    Removing main.o(i.usr_get_charge_status), (14 bytes).
    Removing main.o(.bss), (12 bytes).
    Removing main.o(.bss), (12 bytes).
    Removing main.o(.bss), (12 bytes).
    Removing main.o(.data), (1 bytes).
    Removing main.o(.data), (2 bytes).
    Removing bmm150.o(i.bmm150_get_interrupt_status), (104 bytes).
    Removing bmm150.o(i.bmm150_get_op_mode), (72 bytes).
    Removing bmm150.o(i.bmm150_get_sensor_settings), (230 bytes).
    Removing bmm150.o(i.bmm150_perform_self_test), (692 bytes).
    Removing bmm150.o(i.bmm150_read_mag_data), (524 bytes).
    Removing bmm150.o(i.bmm150_set_sensor_settings), (728 bytes).
    Removing bmm150.o(i.bmm150_soft_reset), (88 bytes).
    Removing bmi160.o(i.bmi160_config_aux_mode), (102 bytes).
    Removing bmi160.o(i.bmi160_get_int_status), (106 bytes).
    Removing bmi160.o(i.bmi160_get_offsets), (156 bytes).
    Removing bmi160.o(i.bmi160_get_power_mode), (70 bytes).
    Removing bmi160.o(i.bmi160_get_sens_conf), (118 bytes).
    Removing bmi160.o(i.bmi160_get_sensor_data), (492 bytes).
    Removing bmi160.o(i.bmi160_perform_self_test), (460 bytes).
    Removing bmi160.o(i.bmi160_read_aux_data_auto_mode), (64 bytes).
    Removing bmi160.o(i.bmi160_read_step_counter), (74 bytes).
    Removing bmi160.o(i.bmi160_set_fifo_down), (68 bytes).
    Removing bmi160.o(i.bmi160_set_fifo_wm), (30 bytes).
    Removing bmi160.o(i.bmi160_set_int_config), (3058 bytes).
    Removing bmi160.o(i.bmi160_set_offsets), (136 bytes).
    Removing bmi160.o(i.bmi160_set_step_counter), (96 bytes).
    Removing bmi160.o(i.bmi160_start_foc), (444 bytes).
    Removing bmi160.o(i.bmi160_update_nvm), (114 bytes).
    Removing bmi160.o(i.map_feature_interrupt), (144 bytes).
    Removing bmi160.o(i.map_hardware_interrupt), (120 bytes).
    Removing bmi160.o(i.set_intr_pin_config), (248 bytes).
    Removing bmi160.o(.constdata), (13 bytes).
    Removing sys_queue.o(i.queue_size), (10 bytes).
    Removing nrf_flash.o(.rev16_text), (4 bytes).
    Removing nrf_flash.o(.revsh_text), (4 bytes).
    Removing nrf_flash.o(.rrx_text), (6 bytes).
    Removing nrf_flash.o(i.nrf_flash_erase_test), (212 bytes).
    Removing nrf_flash.o(i.nrf_flash_read_test), (200 bytes).
    Removing nrf_flash.o(i.nrf_flash_write_test), (208 bytes).
    Removing nrf_flash.o(.data), (4 bytes).
    Removing boards.o(.rev16_text), (4 bytes).
    Removing boards.o(.revsh_text), (4 bytes).
    Removing boards.o(.rrx_text), (6 bytes).
    Removing boards.o(i.bsp_board_button_state_get), (36 bytes).
    Removing boards.o(i.bsp_board_init), (112 bytes).
    Removing boards.o(i.bsp_board_led_idx_to_pin), (12 bytes).
    Removing boards.o(i.bsp_board_pin_to_led_idx), (38 bytes).
    Removing bsp.o(.rev16_text), (4 bytes).
    Removing bsp.o(.revsh_text), (4 bytes).
    Removing bsp.o(.rrx_text), (6 bytes).
    Removing bsp.o(i.alert_timer_handler), (6 bytes).
    Removing bsp.o(i.bsp_button_is_pressed), (12 bytes).
    Removing bsp.o(i.bsp_buttons_disable), (4 bytes).
    Removing bsp.o(i.bsp_buttons_enable), (4 bytes).
    Removing bsp.o(i.bsp_init), (176 bytes).
    Removing bsp.o(i.bsp_wakeup_button_disable), (46 bytes).
    Removing bsp.o(i.button_timer_handler), (56 bytes).
    Removing bsp.o(i.leds_timer_handler), (24 bytes).
    Removing bsp_btn_ble.o(.rev16_text), (4 bytes).
    Removing bsp_btn_ble.o(.revsh_text), (4 bytes).
    Removing bsp_btn_ble.o(.rrx_text), (6 bytes).
    Removing bsp_btn_ble.o(i.bsp_btn_ble_init), (132 bytes).
    Removing utf.o(i.utf16DecodeRune), (74 bytes).
    Removing utf.o(i.utf16EncodeRune), (62 bytes).
    Removing utf.o(i.utf16RuneCount), (120 bytes).
    Removing utf.o(i.utf16UTF8Count), (266 bytes).
    Removing utf.o(i.utf8DecodeRune), (198 bytes).
    Removing utf.o(i.utf8EncodeRune), (168 bytes).
    Removing utf.o(i.utf8RuneCount), (62 bytes).
    Removing utf.o(i.utf8UTF16Count), (130 bytes).
    Removing ble_advdata.o(.rev16_text), (4 bytes).
    Removing ble_advdata.o(.revsh_text), (4 bytes).
    Removing ble_advdata.o(.rrx_text), (6 bytes).
    Removing ble_advdata.o(i.ble_advdata_appearance_find), (56 bytes).
    Removing ble_advdata.o(i.ble_advdata_name_find), (74 bytes).
    Removing ble_advdata.o(i.ble_advdata_short_name_find), (80 bytes).
    Removing ble_advdata.o(i.ble_advdata_uuid_find), (276 bytes).
    Removing ble_advertising.o(.rev16_text), (4 bytes).
    Removing ble_advertising.o(.revsh_text), (4 bytes).
    Removing ble_advertising.o(.rrx_text), (6 bytes).
    Removing ble_advertising.o(i.ble_advertising_advdata_update), (180 bytes).
    Removing ble_advertising.o(i.ble_advertising_modes_config_set), (38 bytes).
    Removing ble_advertising.o(i.ble_advertising_peer_addr_reply), (40 bytes).
    Removing ble_advertising.o(i.ble_advertising_restart_without_whitelist), (92 bytes).
    Removing ble_advertising.o(i.ble_advertising_whitelist_reply), (34 bytes).
    Removing ble_conn_params.o(.rev16_text), (4 bytes).
    Removing ble_conn_params.o(.revsh_text), (4 bytes).
    Removing ble_conn_params.o(.rrx_text), (6 bytes).
    Removing ble_conn_params.o(i.ble_conn_params_change_conn_params), (80 bytes).
    Removing ble_conn_params.o(i.ble_conn_params_stop), (36 bytes).
    Removing ble_conn_state.o(.rev16_text), (4 bytes).
    Removing ble_conn_state.o(.revsh_text), (4 bytes).
    Removing ble_conn_state.o(.rrx_text), (6 bytes).
    Removing ble_conn_state.o(i.active_flag_count), (30 bytes).
    Removing ble_conn_state.o(i.bcs_internal_state_reset), (12 bytes).
    Removing ble_conn_state.o(i.ble_conn_state_central_conn_count), (56 bytes).
    Removing ble_conn_state.o(i.ble_conn_state_central_handles), (32 bytes).
    Removing ble_conn_state.o(i.ble_conn_state_conn_count), (40 bytes).
    Removing ble_conn_state.o(i.ble_conn_state_conn_handles), (12 bytes).
    Removing ble_conn_state.o(i.ble_conn_state_encrypted), (44 bytes).
    Removing ble_conn_state.o(i.ble_conn_state_for_each_connected), (60 bytes).
    Removing ble_conn_state.o(i.ble_conn_state_for_each_set_user_flag), (84 bytes).
    Removing ble_conn_state.o(i.ble_conn_state_init), (12 bytes).
    Removing ble_conn_state.o(i.ble_conn_state_lesc), (44 bytes).
    Removing ble_conn_state.o(i.ble_conn_state_mitm_protected), (44 bytes).
    Removing ble_conn_state.o(i.ble_conn_state_periph_handles), (36 bytes).
    Removing ble_conn_state.o(i.ble_conn_state_peripheral_conn_count), (60 bytes).
    Removing ble_conn_state.o(i.ble_conn_state_role), (32 bytes).
    Removing ble_conn_state.o(i.ble_conn_state_status), (48 bytes).
    Removing ble_conn_state.o(i.ble_conn_state_user_flag_acquire), (24 bytes).
    Removing ble_conn_state.o(i.ble_conn_state_user_flag_get), (56 bytes).
    Removing ble_conn_state.o(i.ble_conn_state_user_flag_set), (76 bytes).
    Removing ble_conn_state.o(i.ble_conn_state_valid), (20 bytes).
    Removing ble_link_ctx_manager.o(.rev16_text), (4 bytes).
    Removing ble_link_ctx_manager.o(.revsh_text), (4 bytes).
    Removing ble_link_ctx_manager.o(.rrx_text), (6 bytes).
    Removing ble_srv_common.o(.rev16_text), (4 bytes).
    Removing ble_srv_common.o(.revsh_text), (4 bytes).
    Removing ble_srv_common.o(.rrx_text), (6 bytes).
    Removing ble_srv_common.o(i.ble_srv_ascii_to_utf8), (18 bytes).
    Removing ble_srv_common.o(i.ble_srv_is_indication_enabled), (8 bytes).
    Removing ble_srv_common.o(i.ble_srv_report_ref_encode), (12 bytes).
    Removing ble_srv_common.o(i.descriptor_add), (174 bytes).
    Removing nrf_ble_gatt.o(.rev16_text), (4 bytes).
    Removing nrf_ble_gatt.o(.revsh_text), (4 bytes).
    Removing nrf_ble_gatt.o(.rrx_text), (6 bytes).
    Removing nrf_ble_gatt.o(i.nrf_ble_gatt_att_mtu_central_set), (24 bytes).
    Removing nrf_ble_gatt.o(i.nrf_ble_gatt_eff_mtu_get), (14 bytes).
    Removing nrf_ble_qwr.o(.rev16_text), (4 bytes).
    Removing nrf_ble_qwr.o(.revsh_text), (4 bytes).
    Removing nrf_ble_qwr.o(.rrx_text), (6 bytes).
    Removing ble_nus.o(.rev16_text), (4 bytes).
    Removing ble_nus.o(.revsh_text), (4 bytes).
    Removing ble_nus.o(.rrx_text), (6 bytes).
    Removing nrf_drv_clock.o(.rev16_text), (4 bytes).
    Removing nrf_drv_clock.o(.revsh_text), (4 bytes).
    Removing nrf_drv_clock.o(.rrx_text), (6 bytes).
    Removing nrf_drv_clock.o(i.nrf_drv_clock_calibration_abort), (4 bytes).
    Removing nrf_drv_clock.o(i.nrf_drv_clock_calibration_start), (4 bytes).
    Removing nrf_drv_clock.o(i.nrf_drv_clock_hfclk_is_running), (48 bytes).
    Removing nrf_drv_clock.o(i.nrf_drv_clock_hfclk_release), (56 bytes).
    Removing nrf_drv_clock.o(i.nrf_drv_clock_hfclk_request), (112 bytes).
    Removing nrf_drv_clock.o(i.nrf_drv_clock_init), (72 bytes).
    Removing nrf_drv_clock.o(i.nrf_drv_clock_init_check), (12 bytes).
    Removing nrf_drv_clock.o(i.nrf_drv_clock_is_calibrating), (4 bytes).
    Removing nrf_drv_clock.o(i.nrf_drv_clock_lfclk_is_running), (28 bytes).
    Removing nrf_drv_clock.o(i.nrf_drv_clock_lfclk_release), (56 bytes).
    Removing nrf_drv_clock.o(i.nrf_drv_clock_lfclk_request), (104 bytes).
    Removing nrf_drv_clock.o(i.nrf_drv_clock_uninit), (24 bytes).
    Removing nrf_drv_clock.o(.constdata), (19 bytes).
    Removing nrf_drv_clock.o(.constdata), (32 bytes).
    Removing nrf_drv_clock.o(.constdata), (32 bytes).
    Removing nrf_drv_clock.o(.constdata), (29 bytes).
    Removing nrfx_atomic.o(.rev16_text), (4 bytes).
    Removing nrfx_atomic.o(.revsh_text), (4 bytes).
    Removing nrfx_atomic.o(.rrx_text), (6 bytes).
    Removing nrfx_atomic.o(.emb_text), (226 bytes).
    Removing nrfx_atomic.o(i.nrfx_atomic_flag_clear), (14 bytes).
    Removing nrfx_atomic.o(i.nrfx_atomic_flag_clear_fetch), (12 bytes).
    Removing nrfx_atomic.o(i.nrfx_atomic_flag_set), (14 bytes).
    Removing nrfx_atomic.o(i.nrfx_atomic_flag_set_fetch), (12 bytes).
    Removing nrfx_atomic.o(i.nrfx_atomic_u32_add), (12 bytes).
    Removing nrfx_atomic.o(i.nrfx_atomic_u32_and), (12 bytes).
    Removing nrfx_atomic.o(i.nrfx_atomic_u32_cmp_exch), (4 bytes).
    Removing nrfx_atomic.o(i.nrfx_atomic_u32_fetch_add), (10 bytes).
    Removing nrfx_atomic.o(i.nrfx_atomic_u32_fetch_and), (10 bytes).
    Removing nrfx_atomic.o(i.nrfx_atomic_u32_fetch_or), (10 bytes).
    Removing nrfx_atomic.o(i.nrfx_atomic_u32_fetch_store), (10 bytes).
    Removing nrfx_atomic.o(i.nrfx_atomic_u32_fetch_sub), (10 bytes).
    Removing nrfx_atomic.o(i.nrfx_atomic_u32_fetch_sub_hs), (10 bytes).
    Removing nrfx_atomic.o(i.nrfx_atomic_u32_fetch_xor), (10 bytes).
    Removing nrfx_atomic.o(i.nrfx_atomic_u32_or), (12 bytes).
    Removing nrfx_atomic.o(i.nrfx_atomic_u32_store), (12 bytes).
    Removing nrfx_atomic.o(i.nrfx_atomic_u32_sub), (12 bytes).
    Removing nrfx_atomic.o(i.nrfx_atomic_u32_sub_hs), (12 bytes).
    Removing nrfx_atomic.o(i.nrfx_atomic_u32_xor), (12 bytes).
    Removing nrfx_clock.o(.rev16_text), (4 bytes).
    Removing nrfx_clock.o(.revsh_text), (4 bytes).
    Removing nrfx_clock.o(.rrx_text), (6 bytes).
    Removing nrfx_clock.o(i.nrfx_clock_calibration_start), (4 bytes).
    Removing nrfx_clock.o(i.nrfx_clock_calibration_timer_start), (2 bytes).
    Removing nrfx_clock.o(i.nrfx_clock_calibration_timer_stop), (2 bytes).
    Removing nrfx_clock.o(i.nrfx_clock_disable), (22 bytes).
    Removing nrfx_clock.o(i.nrfx_clock_hfclk_start), (32 bytes).
    Removing nrfx_clock.o(i.nrfx_clock_hfclk_stop), (52 bytes).
    Removing nrfx_clock.o(i.nrfx_clock_is_calibrating), (4 bytes).
    Removing nrfx_clock.o(i.nrfx_clock_lfclk_start), (32 bytes).
    Removing nrfx_clock.o(i.nrfx_clock_uninit), (100 bytes).
    Removing nrfx_clock.o(.constdata), (16 bytes).
    Removing nrfx_clock.o(.constdata), (29 bytes).
    Removing nrfx_gpiote.o(.rev16_text), (4 bytes).
    Removing nrfx_gpiote.o(.revsh_text), (4 bytes).
    Removing nrfx_gpiote.o(.rrx_text), (6 bytes).
    Removing nrfx_gpiote.o(i.nrfx_gpiote_clr_task_addr_get), (32 bytes).
    Removing nrfx_gpiote.o(i.nrfx_gpiote_clr_task_get), (24 bytes).
    Removing nrfx_gpiote.o(i.nrfx_gpiote_clr_task_trigger), (36 bytes).
    Removing nrfx_gpiote.o(i.nrfx_gpiote_in_event_addr_get), (40 bytes).
    Removing nrfx_gpiote.o(i.nrfx_gpiote_in_event_disable), (96 bytes).
    Removing nrfx_gpiote.o(i.nrfx_gpiote_in_event_enable), (196 bytes).
    Removing nrfx_gpiote.o(i.nrfx_gpiote_in_event_get), (36 bytes).
    Removing nrfx_gpiote.o(i.nrfx_gpiote_in_init), (272 bytes).
    Removing nrfx_gpiote.o(i.nrfx_gpiote_in_is_set), (22 bytes).
    Removing nrfx_gpiote.o(i.nrfx_gpiote_in_uninit), (188 bytes).
    Removing nrfx_gpiote.o(i.nrfx_gpiote_init), (152 bytes).
    Removing nrfx_gpiote.o(i.nrfx_gpiote_is_init), (20 bytes).
    Removing nrfx_gpiote.o(i.nrfx_gpiote_out_clear), (16 bytes).
    Removing nrfx_gpiote.o(i.nrfx_gpiote_out_init), (248 bytes).
    Removing nrfx_gpiote.o(i.nrfx_gpiote_out_set), (16 bytes).
    Removing nrfx_gpiote.o(i.nrfx_gpiote_out_task_addr_get), (28 bytes).
    Removing nrfx_gpiote.o(i.nrfx_gpiote_out_task_disable), (36 bytes).
    Removing nrfx_gpiote.o(i.nrfx_gpiote_out_task_enable), (36 bytes).
    Removing nrfx_gpiote.o(i.nrfx_gpiote_out_task_force), (44 bytes).
    Removing nrfx_gpiote.o(i.nrfx_gpiote_out_task_get), (20 bytes).
    Removing nrfx_gpiote.o(i.nrfx_gpiote_out_task_trigger), (32 bytes).
    Removing nrfx_gpiote.o(i.nrfx_gpiote_out_toggle), (30 bytes).
    Removing nrfx_gpiote.o(i.nrfx_gpiote_out_uninit), (120 bytes).
    Removing nrfx_gpiote.o(i.nrfx_gpiote_set_task_addr_get), (32 bytes).
    Removing nrfx_gpiote.o(i.nrfx_gpiote_set_task_get), (24 bytes).
    Removing nrfx_gpiote.o(i.nrfx_gpiote_set_task_trigger), (36 bytes).
    Removing nrfx_gpiote.o(i.nrfx_gpiote_uninit), (332 bytes).
    Removing nrfx_gpiote.o(.constdata), (17 bytes).
    Removing nrfx_gpiote.o(.constdata), (21 bytes).
    Removing nrfx_gpiote.o(.constdata), (20 bytes).
    Removing nrfx_prs.o(.rev16_text), (4 bytes).
    Removing nrfx_prs.o(.revsh_text), (4 bytes).
    Removing nrfx_prs.o(.rrx_text), (6 bytes).
    Removing nrf_drv_spi.o(.rev16_text), (4 bytes).
    Removing nrf_drv_spi.o(.revsh_text), (4 bytes).
    Removing nrf_drv_spi.o(.rrx_text), (6 bytes).
    Removing nrfx_saadc.o(.rev16_text), (4 bytes).
    Removing nrfx_saadc.o(.revsh_text), (4 bytes).
    Removing nrfx_saadc.o(.rrx_text), (6 bytes).
    Removing nrfx_saadc.o(i.nrfx_saadc_abort), (92 bytes).
    Removing nrfx_saadc.o(i.nrfx_saadc_buffer_convert), (212 bytes).
    Removing nrfx_saadc.o(i.nrfx_saadc_calibrate_offset), (60 bytes).
    Removing nrfx_saadc.o(i.nrfx_saadc_channel_uninit), (144 bytes).
    Removing nrfx_saadc.o(i.nrfx_saadc_is_busy), (16 bytes).
    Removing nrfx_saadc.o(i.nrfx_saadc_limits_set), (136 bytes).
    Removing nrfx_saadc.o(i.nrfx_saadc_sample), (40 bytes).
    Removing nrfx_saadc.o(i.nrfx_saadc_sample_task_get), (28 bytes).
    Removing nrfx_saadc.o(.constdata), (6 bytes).
    Removing nrfx_saadc.o(.constdata), (16 bytes).
    Removing nrfx_saadc.o(.constdata), (24 bytes).
    Removing nrfx_saadc.o(.constdata), (26 bytes).
    Removing nrfx_saadc.o(.constdata), (26 bytes).
    Removing nrfx_saadc.o(.constdata), (26 bytes).
    Removing nrfx_saadc.o(.constdata), (18 bytes).
    Removing nrfx_saadc.o(.constdata), (28 bytes).
    Removing nrfx_spi.o(.rev16_text), (4 bytes).
    Removing nrfx_spi.o(.revsh_text), (4 bytes).
    Removing nrfx_spi.o(.rrx_text), (6 bytes).
    Removing nrfx_spi.o(i.nrfx_spi_abort), (28 bytes).
    Removing nrfx_spi.o(.constdata), (14 bytes).
    Removing nrfx_spi.o(.constdata), (14 bytes).
    Removing nrfx_spim.o(.rev16_text), (4 bytes).
    Removing nrfx_spim.o(.revsh_text), (4 bytes).
    Removing nrfx_spim.o(.rrx_text), (6 bytes).
    Removing nrfx_wdt.o(.rev16_text), (4 bytes).
    Removing nrfx_wdt.o(.revsh_text), (4 bytes).
    Removing nrfx_wdt.o(.rrx_text), (6 bytes).
    Removing nrfx_wdt.o(i.nrfx_wdt_feed), (48 bytes).
    Removing nrfx_wdt.o(.constdata), (14 bytes).
    Removing nrfx_wdt.o(.constdata), (23 bytes).
    Removing nrfx_rtc.o(.rev16_text), (4 bytes).
    Removing nrfx_rtc.o(.revsh_text), (4 bytes).
    Removing nrfx_rtc.o(.rrx_text), (6 bytes).
    Removing nrfx_rtc.o(i.nrfx_rtc_cc_disable), (66 bytes).
    Removing nrfx_rtc.o(i.nrfx_rtc_cc_set), (136 bytes).
    Removing nrfx_rtc.o(i.nrfx_rtc_disable), (24 bytes).
    Removing nrfx_rtc.o(i.nrfx_rtc_enable), (24 bytes).
    Removing nrfx_rtc.o(i.nrfx_rtc_init), (148 bytes).
    Removing nrfx_rtc.o(i.nrfx_rtc_max_ticks_get), (36 bytes).
    Removing nrfx_rtc.o(i.nrfx_rtc_overflow_disable), (16 bytes).
    Removing nrfx_rtc.o(i.nrfx_rtc_overflow_enable), (40 bytes).
    Removing nrfx_rtc.o(i.nrfx_rtc_tick_disable), (16 bytes).
    Removing nrfx_rtc.o(i.nrfx_rtc_tick_enable), (40 bytes).
    Removing nrfx_rtc.o(i.nrfx_rtc_uninit), (68 bytes).
    Removing nrfx_rtc.o(.constdata), (14 bytes).
    Removing nrfx_rtc.o(.constdata), (20 bytes).
    Removing nrfx_rtc.o(.constdata), (16 bytes).
    Removing app_button.o(.rev16_text), (4 bytes).
    Removing app_button.o(.revsh_text), (4 bytes).
    Removing app_button.o(.rrx_text), (6 bytes).
    Removing app_button.o(i.app_button_disable), (76 bytes).
    Removing app_button.o(i.app_button_enable), (40 bytes).
    Removing app_button.o(i.app_button_init), (144 bytes).
    Removing app_button.o(i.app_button_is_pushed), (36 bytes).
    Removing app_button.o(i.detection_delay_timeout_handler), (412 bytes).
    Removing app_button.o(i.evt_handle), (380 bytes).
    Removing app_button.o(i.gpiote_event_handler), (100 bytes).
    Removing app_button.o(i.state_set), (40 bytes).
    Removing app_button.o(.bss), (16 bytes).
    Removing app_button.o(.constdata), (8 bytes).
    Removing app_button.o(.data), (24 bytes).
    Removing app_button.o(.data), (32 bytes).
    Removing app_error.o(.rev16_text), (4 bytes).
    Removing app_error.o(.revsh_text), (4 bytes).
    Removing app_error.o(.rrx_text), (6 bytes).
    Removing app_error.o(i.app_error_handler_bare), (26 bytes).
    Removing app_error_handler_keil.o(.rev16_text), (4 bytes).
    Removing app_error_handler_keil.o(.revsh_text), (4 bytes).
    Removing app_error_handler_keil.o(.rrx_text), (6 bytes).
    Removing app_error_weak.o(.rev16_text), (4 bytes).
    Removing app_error_weak.o(.revsh_text), (4 bytes).
    Removing app_error_weak.o(.rrx_text), (6 bytes).
    Removing app_fifo.o(.rev16_text), (4 bytes).
    Removing app_fifo.o(.revsh_text), (4 bytes).
    Removing app_fifo.o(.rrx_text), (6 bytes).
    Removing app_fifo.o(i.app_fifo_flush), (8 bytes).
    Removing app_fifo.o(i.app_fifo_get), (34 bytes).
    Removing app_fifo.o(i.app_fifo_init), (34 bytes).
    Removing app_fifo.o(i.app_fifo_peek), (36 bytes).
    Removing app_fifo.o(i.app_fifo_put), (34 bytes).
    Removing app_fifo.o(i.app_fifo_read), (140 bytes).
    Removing app_fifo.o(i.app_fifo_write), (152 bytes).
    Removing app_scheduler.o(.rev16_text), (4 bytes).
    Removing app_scheduler.o(.revsh_text), (4 bytes).
    Removing app_scheduler.o(.rrx_text), (6 bytes).
    Removing app_scheduler.o(i.app_sched_event_put), (160 bytes).
    Removing app_scheduler.o(i.app_sched_execute), (68 bytes).
    Removing app_scheduler.o(i.app_sched_init), (44 bytes).
    Removing app_scheduler.o(i.app_sched_queue_space_get), (32 bytes).
    Removing app_scheduler.o(.data), (16 bytes).
    Removing app_timer2.o(.rev16_text), (4 bytes).
    Removing app_timer2.o(.revsh_text), (4 bytes).
    Removing app_timer2.o(.rrx_text), (6 bytes).
    Removing app_timer2.o(i.app_timer_cnt_diff_compute), (8 bytes).
    Removing app_timer2.o(i.app_timer_cnt_get), (12 bytes).
    Removing app_timer2.o(i.app_timer_pause), (12 bytes).
    Removing app_timer2.o(i.app_timer_resume), (12 bytes).
    Removing app_timer2.o(i.app_timer_stop_all), (68 bytes).
    Removing app_uart_fifo.o(.rev16_text), (4 bytes).
    Removing app_uart_fifo.o(.revsh_text), (4 bytes).
    Removing app_uart_fifo.o(.rrx_text), (6 bytes).
    Removing app_util_platform.o(.rev16_text), (4 bytes).
    Removing app_util_platform.o(.revsh_text), (4 bytes).
    Removing app_util_platform.o(.rrx_text), (6 bytes).
    Removing app_util_platform.o(i.app_util_disable_irq), (16 bytes).
    Removing app_util_platform.o(i.app_util_enable_irq), (20 bytes).
    Removing app_util_platform.o(i.current_int_priority_get), (44 bytes).
    Removing app_util_platform.o(i.privilege_level_get), (26 bytes).
    Removing app_util_platform.o(.data), (4 bytes).
    Removing drv_rtc.o(.rev16_text), (4 bytes).
    Removing drv_rtc.o(.revsh_text), (4 bytes).
    Removing drv_rtc.o(.rrx_text), (6 bytes).
    Removing drv_rtc.o(i.drv_rtc_compare_enable), (26 bytes).
    Removing drv_rtc.o(i.drv_rtc_compare_get), (14 bytes).
    Removing drv_rtc.o(i.drv_rtc_overflow_disable), (16 bytes).
    Removing drv_rtc.o(i.drv_rtc_tick_disable), (16 bytes).
    Removing drv_rtc.o(i.drv_rtc_tick_enable), (20 bytes).
    Removing drv_rtc.o(i.drv_rtc_tick_pending), (34 bytes).
    Removing drv_rtc.o(i.drv_rtc_uninit), (112 bytes).
    Removing hardfault_implementation.o(.rev16_text), (4 bytes).
    Removing hardfault_implementation.o(.revsh_text), (4 bytes).
    Removing hardfault_implementation.o(.rrx_text), (6 bytes).
    Removing nrf_assert.o(.rev16_text), (4 bytes).
    Removing nrf_assert.o(.revsh_text), (4 bytes).
    Removing nrf_assert.o(.rrx_text), (6 bytes).
    Removing nrf_assert.o(i.assert_nrf_callback), (24 bytes).
    Removing nrf_atfifo.o(.rev16_text), (4 bytes).
    Removing nrf_atfifo.o(.revsh_text), (4 bytes).
    Removing nrf_atfifo.o(.rrx_text), (6 bytes).
    Removing nrf_atfifo.o(i.nrf_atfifo_alloc_put), (74 bytes).
    Removing nrf_atfifo.o(i.nrf_atfifo_get_free), (74 bytes).
    Removing nrf_atflags.o(.rev16_text), (4 bytes).
    Removing nrf_atflags.o(.revsh_text), (4 bytes).
    Removing nrf_atflags.o(.rrx_text), (6 bytes).
    Removing nrf_atflags.o(i.nrf_atflags_fetch_clear), (34 bytes).
    Removing nrf_atflags.o(i.nrf_atflags_fetch_set), (32 bytes).
    Removing nrf_atflags.o(i.nrf_atflags_find_and_clear_flag), (110 bytes).
    Removing nrf_atflags.o(i.nrf_atflags_find_and_set_flag), (114 bytes).
    Removing nrf_atflags.o(i.nrf_atflags_init), (64 bytes).
    Removing nrf_atomic.o(.rev16_text), (4 bytes).
    Removing nrf_atomic.o(.revsh_text), (4 bytes).
    Removing nrf_atomic.o(.rrx_text), (6 bytes).
    Removing nrf_atomic.o(i.nrf_atomic_flag_clear), (14 bytes).
    Removing nrf_atomic.o(i.nrf_atomic_u32_cmp_exch), (4 bytes).
    Removing nrf_atomic.o(i.nrf_atomic_u32_fetch_add), (10 bytes).
    Removing nrf_atomic.o(i.nrf_atomic_u32_fetch_and), (10 bytes).
    Removing nrf_atomic.o(i.nrf_atomic_u32_fetch_or), (10 bytes).
    Removing nrf_atomic.o(i.nrf_atomic_u32_fetch_sub), (10 bytes).
    Removing nrf_atomic.o(i.nrf_atomic_u32_fetch_sub_hs), (10 bytes).
    Removing nrf_atomic.o(i.nrf_atomic_u32_fetch_xor), (10 bytes).
    Removing nrf_atomic.o(i.nrf_atomic_u32_store), (12 bytes).
    Removing nrf_atomic.o(i.nrf_atomic_u32_sub_hs), (12 bytes).
    Removing nrf_atomic.o(i.nrf_atomic_u32_xor), (12 bytes).
    Removing nrf_balloc.o(.rev16_text), (4 bytes).
    Removing nrf_balloc.o(.revsh_text), (4 bytes).
    Removing nrf_balloc.o(.rrx_text), (6 bytes).
    Removing nrf_fprintf.o(.rev16_text), (4 bytes).
    Removing nrf_fprintf.o(.revsh_text), (4 bytes).
    Removing nrf_fprintf.o(.rrx_text), (6 bytes).
    Removing nrf_fprintf_format.o(.rev16_text), (4 bytes).
    Removing nrf_fprintf_format.o(.revsh_text), (4 bytes).
    Removing nrf_fprintf_format.o(.rrx_text), (6 bytes).
    Removing nrf_memobj.o(.rev16_text), (4 bytes).
    Removing nrf_memobj.o(.revsh_text), (4 bytes).
    Removing nrf_memobj.o(.rrx_text), (6 bytes).
    Removing nrf_memobj.o(i.nrf_memobj_free), (64 bytes).
    Removing nrf_pwr_mgmt.o(.rev16_text), (4 bytes).
    Removing nrf_pwr_mgmt.o(.revsh_text), (4 bytes).
    Removing nrf_pwr_mgmt.o(.rrx_text), (6 bytes).
    Removing nrf_pwr_mgmt.o(i.nrf_pwr_mgmt_feed), (2 bytes).
    Removing nrf_pwr_mgmt.o(i.nrf_pwr_mgmt_shutdown), (196 bytes).
    Removing nrf_ringbuf.o(.rev16_text), (4 bytes).
    Removing nrf_ringbuf.o(.revsh_text), (4 bytes).
    Removing nrf_ringbuf.o(.rrx_text), (6 bytes).
    Removing nrf_ringbuf.o(i.nrf_ringbuf_alloc), (126 bytes).
    Removing nrf_ringbuf.o(i.nrf_ringbuf_cpy_get), (130 bytes).
    Removing nrf_ringbuf.o(i.nrf_ringbuf_cpy_put), (122 bytes).
    Removing nrf_ringbuf.o(i.nrf_ringbuf_free), (42 bytes).
    Removing nrf_ringbuf.o(i.nrf_ringbuf_get), (120 bytes).
    Removing nrf_ringbuf.o(i.nrf_ringbuf_put), (56 bytes).
    Removing nrf_section_iter.o(.rev16_text), (4 bytes).
    Removing nrf_section_iter.o(.revsh_text), (4 bytes).
    Removing nrf_section_iter.o(.rrx_text), (6 bytes).
    Removing nrf_sortlist.o(.rev16_text), (4 bytes).
    Removing nrf_sortlist.o(.revsh_text), (4 bytes).
    Removing nrf_sortlist.o(.rrx_text), (6 bytes).
    Removing nrf_sortlist.o(i.nrf_sortlist_next), (4 bytes).
    Removing nrf_strerror.o(.rev16_text), (4 bytes).
    Removing nrf_strerror.o(.revsh_text), (4 bytes).
    Removing nrf_strerror.o(.rrx_text), (6 bytes).
    Removing nrf_strerror.o(i.nrf_strerror_find), (60 bytes).
    Removing retarget.o(.rev16_text), (4 bytes).
    Removing retarget.o(.revsh_text), (4 bytes).
    Removing retarget.o(.rrx_text), (6 bytes).
    Removing nrf_fstorage.o(.rev16_text), (4 bytes).
    Removing nrf_fstorage.o(.revsh_text), (4 bytes).
    Removing nrf_fstorage.o(.rrx_text), (6 bytes).
    Removing nrf_fstorage.o(i.nrf_fstorage_rmap), (16 bytes).
    Removing nrf_fstorage.o(i.nrf_fstorage_uninit), (156 bytes).
    Removing nrf_fstorage.o(i.nrf_fstorage_wmap), (16 bytes).
    Removing nrf_fstorage_sd.o(.rev16_text), (4 bytes).
    Removing nrf_fstorage_sd.o(.revsh_text), (4 bytes).
    Removing nrf_fstorage_sd.o(.rrx_text), (6 bytes).
    Removing nrf_log_backend_rtt.o(.rev16_text), (4 bytes).
    Removing nrf_log_backend_rtt.o(.revsh_text), (4 bytes).
    Removing nrf_log_backend_rtt.o(.rrx_text), (6 bytes).
    Removing nrf_log_backend_serial.o(.rev16_text), (4 bytes).
    Removing nrf_log_backend_serial.o(.revsh_text), (4 bytes).
    Removing nrf_log_backend_serial.o(.rrx_text), (6 bytes).
    Removing nrf_log_default_backends.o(.rev16_text), (4 bytes).
    Removing nrf_log_default_backends.o(.revsh_text), (4 bytes).
    Removing nrf_log_default_backends.o(.rrx_text), (6 bytes).
    Removing nrf_log_frontend.o(.rev16_text), (4 bytes).
    Removing nrf_log_frontend.o(.revsh_text), (4 bytes).
    Removing nrf_log_frontend.o(.rrx_text), (6 bytes).
    Removing nrf_log_frontend.o(i.buffer_is_empty), (20 bytes).
    Removing nrf_log_frontend.o(i.nrf_log_backend_remove), (52 bytes).
    Removing nrf_log_frontend.o(i.nrf_log_frontend_hexdump), (188 bytes).
    Removing nrf_log_frontend.o(i.nrf_log_frontend_std_4), (24 bytes).
    Removing nrf_log_frontend.o(i.nrf_log_frontend_std_6), (28 bytes).
    Removing nrf_log_frontend.o(i.nrf_log_module_cnt_get), (20 bytes).
    Removing nrf_log_frontend.o(i.nrf_log_module_filter_get), (80 bytes).
    Removing nrf_log_frontend.o(i.nrf_log_module_filter_set), (2 bytes).
    Removing nrf_log_frontend.o(i.nrf_log_push), (104 bytes).
    Removing nrf_log_str_formatter.o(.rev16_text), (4 bytes).
    Removing nrf_log_str_formatter.o(.revsh_text), (4 bytes).
    Removing nrf_log_str_formatter.o(.rrx_text), (6 bytes).
    Removing nrf_log_str_formatter.o(i.nrf_log_str_formatter_timestamp_freq_set), (36 bytes).
    Removing segger_rtt.o(.rev16_text), (4 bytes).
    Removing segger_rtt.o(.revsh_text), (4 bytes).
    Removing segger_rtt.o(.rrx_text), (6 bytes).
    Removing segger_rtt.o(i.SEGGER_RTT_AllocDownBuffer), (112 bytes).
    Removing segger_rtt.o(i.SEGGER_RTT_AllocUpBuffer), (112 bytes).
    Removing segger_rtt.o(i.SEGGER_RTT_ConfigDownBuffer), (104 bytes).
    Removing segger_rtt.o(i.SEGGER_RTT_ConfigUpBuffer), (104 bytes).
    Removing segger_rtt.o(i.SEGGER_RTT_GetKey), (156 bytes).
    Removing segger_rtt.o(i.SEGGER_RTT_HasData), (24 bytes).
    Removing segger_rtt.o(i.SEGGER_RTT_HasKey), (32 bytes).
    Removing segger_rtt.o(i.SEGGER_RTT_PutChar), (100 bytes).
    Removing segger_rtt.o(i.SEGGER_RTT_PutCharSkip), (88 bytes).
    Removing segger_rtt.o(i.SEGGER_RTT_PutCharSkipNoLock), (56 bytes).
    Removing segger_rtt.o(i.SEGGER_RTT_Read), (148 bytes).
    Removing segger_rtt.o(i.SEGGER_RTT_ReadNoLock), (128 bytes).
    Removing segger_rtt.o(i.SEGGER_RTT_SetFlagsDownBuffer), (68 bytes).
    Removing segger_rtt.o(i.SEGGER_RTT_SetFlagsUpBuffer), (68 bytes).
    Removing segger_rtt.o(i.SEGGER_RTT_SetNameDownBuffer), (68 bytes).
    Removing segger_rtt.o(i.SEGGER_RTT_SetNameUpBuffer), (68 bytes).
    Removing segger_rtt.o(i.SEGGER_RTT_SetTerminal), (208 bytes).
    Removing segger_rtt.o(i.SEGGER_RTT_TerminalOut), (240 bytes).
    Removing segger_rtt.o(i.SEGGER_RTT_WaitKey), (168 bytes).
    Removing segger_rtt.o(i.SEGGER_RTT_Write), (60 bytes).
    Removing segger_rtt.o(i.SEGGER_RTT_WriteSkipNoLock), (136 bytes).
    Removing segger_rtt.o(i.SEGGER_RTT_WriteString), (68 bytes).
    Removing segger_rtt.o(i.SEGGER_RTT_WriteWithOverwriteNoLock), (160 bytes).
    Removing segger_rtt.o(.data), (17 bytes).
    Removing segger_rtt_syscalls_keil.o(.rev16_text), (4 bytes).
    Removing segger_rtt_syscalls_keil.o(.revsh_text), (4 bytes).
    Removing segger_rtt_syscalls_keil.o(.rrx_text), (6 bytes).
    Removing segger_rtt_syscalls_keil.o(i._sys_close), (4 bytes).
    Removing segger_rtt_syscalls_keil.o(i._sys_command_string), (2 bytes).
    Removing segger_rtt_syscalls_keil.o(i._sys_ensure), (6 bytes).
    Removing segger_rtt_syscalls_keil.o(i._sys_exit), (2 bytes).
    Removing segger_rtt_syscalls_keil.o(i._sys_flen), (4 bytes).
    Removing segger_rtt_syscalls_keil.o(i._sys_istty), (12 bytes).
    Removing segger_rtt_syscalls_keil.o(i._sys_open), (48 bytes).
    Removing segger_rtt_syscalls_keil.o(i._sys_read), (4 bytes).
    Removing segger_rtt_syscalls_keil.o(i._sys_seek), (4 bytes).
    Removing segger_rtt_syscalls_keil.o(i._sys_tmpnam), (4 bytes).
    Removing segger_rtt_syscalls_keil.o(i._sys_write), (30 bytes).
    Removing segger_rtt_syscalls_keil.o(i._ttywrch), (24 bytes).
    Removing segger_rtt_syscalls_keil.o(.constdata), (14 bytes).
    Removing segger_rtt_printf.o(.rev16_text), (4 bytes).
    Removing segger_rtt_printf.o(.revsh_text), (4 bytes).
    Removing segger_rtt_printf.o(.rrx_text), (6 bytes).
    Removing segger_rtt_printf.o(i.SEGGER_RTT_printf), (22 bytes).
    Removing segger_rtt_printf.o(i.SEGGER_RTT_vprintf), (648 bytes).
    Removing segger_rtt_printf.o(i._PrintUnsigned), (240 bytes).
    Removing segger_rtt_printf.o(i._StoreChar), (62 bytes).
    Removing segger_rtt_printf.o(.constdata), (16 bytes).
    Removing nrf_sdh.o(.rev16_text), (4 bytes).
    Removing nrf_sdh.o(.revsh_text), (4 bytes).
    Removing nrf_sdh.o(.rrx_text), (6 bytes).
    Removing nrf_sdh.o(i.nrf_sdh_evts_poll), (52 bytes).
    Removing nrf_sdh.o(i.nrf_sdh_is_suspended), (20 bytes).
    Removing nrf_sdh.o(i.nrf_sdh_resume), (104 bytes).
    Removing nrf_sdh.o(i.nrf_sdh_suspend), (56 bytes).
    Removing nrf_sdh_ble.o(.rev16_text), (4 bytes).
    Removing nrf_sdh_ble.o(.revsh_text), (4 bytes).
    Removing nrf_sdh_ble.o(.rrx_text), (6 bytes).
    Removing nrf_sdh_ble.o(i.nrf_sdh_ble_app_ram_start_get), (24 bytes).
    Removing nrf_sdh_soc.o(.rev16_text), (4 bytes).
    Removing nrf_sdh_soc.o(.revsh_text), (4 bytes).
    Removing nrf_sdh_soc.o(.rrx_text), (6 bytes).
    Removing arm_startup_nrf52805.o(HEAP), (2048 bytes).
    Removing system_nrf52805.o(.rev16_text), (4 bytes).
    Removing system_nrf52805.o(.revsh_text), (4 bytes).
    Removing system_nrf52805.o(.rrx_text), (6 bytes).
    Removing system_nrf52805.o(i.SystemCoreClockUpdate), (16 bytes).

556 unused section(s) (total 32909 bytes) removed from the image.

==============================================================================

Image Symbol Table

    Local Symbols

    Symbol Name                              Value     Ov Type        Size  Object(Section)

    ../clib/../cmprslib/zerorunl2.c          0x00000000   Number         0  __dczerorl2.o ABSOLUTE
    ../clib/microlib/ctype/ctype.c           0x00000000   Number         0  isalnum_o.o ABSOLUTE
    ../clib/microlib/ctype/ctype.c           0x00000000   Number         0  ispunct_o.o ABSOLUTE
    ../clib/microlib/ctype/ctype.c           0x00000000   Number         0  isgraph_o.o ABSOLUTE
    ../clib/microlib/ctype/ctype.c           0x00000000   Number         0  islower_o.o ABSOLUTE
    ../clib/microlib/ctype/ctype.c           0x00000000   Number         0  isupper_o.o ABSOLUTE
    ../clib/microlib/ctype/ctype.c           0x00000000   Number         0  ctype_o.o ABSOLUTE
    ../clib/microlib/ctype/ctype.c           0x00000000   Number         0  isdigit_o.o ABSOLUTE
    ../clib/microlib/ctype/ctype.c           0x00000000   Number         0  isprint_o.o ABSOLUTE
    ../clib/microlib/ctype/ctype.c           0x00000000   Number         0  isalpha_o.o ABSOLUTE
    ../clib/microlib/ctype/ctype.c           0x00000000   Number         0  isxdigit_o.o ABSOLUTE
    ../clib/microlib/ctype/ctype.c           0x00000000   Number         0  isspace_o.o ABSOLUTE
    ../clib/microlib/ctype/ctype.c           0x00000000   Number         0  isblank_o.o ABSOLUTE
    ../clib/microlib/ctype/ctype.c           0x00000000   Number         0  iscntrl_o.o ABSOLUTE
    ../clib/microlib/division.c              0x00000000   Number         0  uldiv.o ABSOLUTE
    ../clib/microlib/init/entry.s            0x00000000   Number         0  entry8a.o ABSOLUTE
    ../clib/microlib/init/entry.s            0x00000000   Number         0  entry2.o ABSOLUTE
    ../clib/microlib/init/entry.s            0x00000000   Number         0  entry7b.o ABSOLUTE
    ../clib/microlib/init/entry.s            0x00000000   Number         0  entry7a.o ABSOLUTE
    ../clib/microlib/init/entry.s            0x00000000   Number         0  entry5.o ABSOLUTE
    ../clib/microlib/init/entry.s            0x00000000   Number         0  entry.o ABSOLUTE
    ../clib/microlib/init/entry.s            0x00000000   Number         0  entry9b.o ABSOLUTE
    ../clib/microlib/init/entry.s            0x00000000   Number         0  entry12b.o ABSOLUTE
    ../clib/microlib/init/entry.s            0x00000000   Number         0  entry12a.o ABSOLUTE
    ../clib/microlib/init/entry.s            0x00000000   Number         0  entry11b.o ABSOLUTE
    ../clib/microlib/init/entry.s            0x00000000   Number         0  entry11a.o ABSOLUTE
    ../clib/microlib/init/entry.s            0x00000000   Number         0  entry10b.o ABSOLUTE
    ../clib/microlib/init/entry.s            0x00000000   Number         0  entry10a.o ABSOLUTE
    ../clib/microlib/init/entry.s            0x00000000   Number         0  entry9a.o ABSOLUTE
    ../clib/microlib/init/entry.s            0x00000000   Number         0  entry8b.o ABSOLUTE
    ../clib/microlib/longlong.c              0x00000000   Number         0  llushr.o ABSOLUTE
    ../clib/microlib/longlong.c              0x00000000   Number         0  llshl.o ABSOLUTE
    ../clib/microlib/stdio/fflush.c          0x00000000   Number         0  fflush.o ABSOLUTE
    ../clib/microlib/stdio/fputc.c           0x00000000   Number         0  fputc.o ABSOLUTE
    ../clib/microlib/stdio/semi.s            0x00000000   Number         0  semi.o ABSOLUTE
    ../clib/microlib/stdio/streams.c         0x00000000   Number         0  stdout.o ABSOLUTE
    ../clib/microlib/string/memcmp.c         0x00000000   Number         0  memcmp.o ABSOLUTE
    ../clib/microlib/string/memcpy.c         0x00000000   Number         0  memcpyb.o ABSOLUTE
    ../clib/microlib/string/memcpy.c         0x00000000   Number         0  memcpya.o ABSOLUTE
    ../clib/microlib/string/memset.c         0x00000000   Number         0  memseta.o ABSOLUTE
    ../clib/microlib/string/strcmp.c         0x00000000   Number         0  strcmp.o ABSOLUTE
    ../clib/microlib/string/strlen.c         0x00000000   Number         0  strlen.o ABSOLUTE
    ../clib/microlib/stubs.s                 0x00000000   Number         0  iusesemip.o ABSOLUTE
    ../clib/microlib/stubs.s                 0x00000000   Number         0  iusefp.o ABSOLUTE
    ../clib/microlib/stubs.s                 0x00000000   Number         0  useno.o ABSOLUTE
    ../fplib/microlib/fpdiv.c                0x00000000   Number         0  ddiv.o ABSOLUTE
    ../fplib/microlib/fpepilogue.c           0x00000000   Number         0  depilogue.o ABSOLUTE
    ../fplib/microlib/fpfix.c                0x00000000   Number         0  dfixui.o ABSOLUTE
    ../fplib/microlib/fpflt.c                0x00000000   Number         0  dflti.o ABSOLUTE
    ../fplib/microlib/fpflt.c                0x00000000   Number         0  dfltui.o ABSOLUTE
    ../fplib/microlib/fpmul.c                0x00000000   Number         0  dmul.o ABSOLUTE
    ../fplib/microlib/fpscalb.c              0x00000000   Number         0  dscalb.o ABSOLUTE
    ..\..\..\..\..\..\components\ble\ble_advertising\ble_advertising.c 0x00000000   Number         0  ble_advertising.o ABSOLUTE
    ..\..\..\..\..\..\components\ble\ble_link_ctx_manager\ble_link_ctx_manager.c 0x00000000   Number         0  ble_link_ctx_manager.o ABSOLUTE
    ..\..\..\..\..\..\components\ble\ble_services\ble_nus\ble_nus.c 0x00000000   Number         0  ble_nus.o ABSOLUTE
    ..\..\..\..\..\..\components\ble\common\ble_advdata.c 0x00000000   Number         0  ble_advdata.o ABSOLUTE
    ..\..\..\..\..\..\components\ble\common\ble_conn_params.c 0x00000000   Number         0  ble_conn_params.o ABSOLUTE
    ..\..\..\..\..\..\components\ble\common\ble_conn_state.c 0x00000000   Number         0  ble_conn_state.o ABSOLUTE
    ..\..\..\..\..\..\components\ble\common\ble_srv_common.c 0x00000000   Number         0  ble_srv_common.o ABSOLUTE
    ..\..\..\..\..\..\components\ble\nrf_ble_gatt\nrf_ble_gatt.c 0x00000000   Number         0  nrf_ble_gatt.o ABSOLUTE
    ..\..\..\..\..\..\components\ble\nrf_ble_qwr\nrf_ble_qwr.c 0x00000000   Number         0  nrf_ble_qwr.o ABSOLUTE
    ..\..\..\..\..\..\components\boards\boards.c 0x00000000   Number         0  boards.o ABSOLUTE
    ..\..\..\..\..\..\components\libraries\atomic\nrf_atomic.c 0x00000000   Number         0  nrf_atomic.o ABSOLUTE
    ..\..\..\..\..\..\components\libraries\atomic_fifo\nrf_atfifo.c 0x00000000   Number         0  nrf_atfifo.o ABSOLUTE
    ..\..\..\..\..\..\components\libraries\atomic_flags\nrf_atflags.c 0x00000000   Number         0  nrf_atflags.o ABSOLUTE
    ..\..\..\..\..\..\components\libraries\balloc\nrf_balloc.c 0x00000000   Number         0  nrf_balloc.o ABSOLUTE
    ..\..\..\..\..\..\components\libraries\bsp\bsp.c 0x00000000   Number         0  bsp.o ABSOLUTE
    ..\..\..\..\..\..\components\libraries\bsp\bsp_btn_ble.c 0x00000000   Number         0  bsp_btn_ble.o ABSOLUTE
    ..\..\..\..\..\..\components\libraries\button\app_button.c 0x00000000   Number         0  app_button.o ABSOLUTE
    ..\..\..\..\..\..\components\libraries\experimental_section_vars\nrf_section_iter.c 0x00000000   Number         0  nrf_section_iter.o ABSOLUTE
    ..\..\..\..\..\..\components\libraries\fifo\app_fifo.c 0x00000000   Number         0  app_fifo.o ABSOLUTE
    ..\..\..\..\..\..\components\libraries\fstorage\nrf_fstorage.c 0x00000000   Number         0  nrf_fstorage.o ABSOLUTE
    ..\..\..\..\..\..\components\libraries\fstorage\nrf_fstorage_sd.c 0x00000000   Number         0  nrf_fstorage_sd.o ABSOLUTE
    ..\..\..\..\..\..\components\libraries\hardfault\hardfault_implementation.c 0x00000000   Number         0  hardfault_implementation.o ABSOLUTE
    ..\..\..\..\..\..\components\libraries\log\src\nrf_log_backend_rtt.c 0x00000000   Number         0  nrf_log_backend_rtt.o ABSOLUTE
    ..\..\..\..\..\..\components\libraries\log\src\nrf_log_backend_serial.c 0x00000000   Number         0  nrf_log_backend_serial.o ABSOLUTE
    ..\..\..\..\..\..\components\libraries\log\src\nrf_log_default_backends.c 0x00000000   Number         0  nrf_log_default_backends.o ABSOLUTE
    ..\..\..\..\..\..\components\libraries\log\src\nrf_log_frontend.c 0x00000000   Number         0  nrf_log_frontend.o ABSOLUTE
    ..\..\..\..\..\..\components\libraries\log\src\nrf_log_str_formatter.c 0x00000000   Number         0  nrf_log_str_formatter.o ABSOLUTE
    ..\..\..\..\..\..\components\libraries\memobj\nrf_memobj.c 0x00000000   Number         0  nrf_memobj.o ABSOLUTE
    ..\..\..\..\..\..\components\libraries\pwr_mgmt\nrf_pwr_mgmt.c 0x00000000   Number         0  nrf_pwr_mgmt.o ABSOLUTE
    ..\..\..\..\..\..\components\libraries\ringbuf\nrf_ringbuf.c 0x00000000   Number         0  nrf_ringbuf.o ABSOLUTE
    ..\..\..\..\..\..\components\libraries\scheduler\app_scheduler.c 0x00000000   Number         0  app_scheduler.o ABSOLUTE
    ..\..\..\..\..\..\components\libraries\sortlist\nrf_sortlist.c 0x00000000   Number         0  nrf_sortlist.o ABSOLUTE
    ..\..\..\..\..\..\components\libraries\strerror\nrf_strerror.c 0x00000000   Number         0  nrf_strerror.o ABSOLUTE
    ..\..\..\..\..\..\components\libraries\timer\app_timer2.c 0x00000000   Number         0  app_timer2.o ABSOLUTE
    ..\..\..\..\..\..\components\libraries\timer\drv_rtc.c 0x00000000   Number         0  drv_rtc.o ABSOLUTE
    ..\..\..\..\..\..\components\libraries\uart\app_uart_fifo.c 0x00000000   Number         0  app_uart_fifo.o ABSOLUTE
    ..\..\..\..\..\..\components\libraries\uart\retarget.c 0x00000000   Number         0  retarget.o ABSOLUTE
    ..\..\..\..\..\..\components\libraries\util\app_error.c 0x00000000   Number         0  app_error.o ABSOLUTE
    ..\..\..\..\..\..\components\libraries\util\app_error_handler_keil.c 0x00000000   Number         0  app_error_handler_keil.o ABSOLUTE
    ..\..\..\..\..\..\components\libraries\util\app_error_weak.c 0x00000000   Number         0  app_error_weak.o ABSOLUTE
    ..\..\..\..\..\..\components\libraries\util\app_util_platform.c 0x00000000   Number         0  app_util_platform.o ABSOLUTE
    ..\..\..\..\..\..\components\libraries\util\nrf_assert.c 0x00000000   Number         0  nrf_assert.o ABSOLUTE
    ..\..\..\..\..\..\components\softdevice\common\nrf_sdh.c 0x00000000   Number         0  nrf_sdh.o ABSOLUTE
    ..\..\..\..\..\..\components\softdevice\common\nrf_sdh_ble.c 0x00000000   Number         0  nrf_sdh_ble.o ABSOLUTE
    ..\..\..\..\..\..\components\softdevice\common\nrf_sdh_soc.c 0x00000000   Number         0  nrf_sdh_soc.o ABSOLUTE
    ..\..\..\..\..\..\driver\bmi160\bmi160.c 0x00000000   Number         0  bmi160.o ABSOLUTE
    ..\..\..\..\..\..\driver\bmm150\bmm150.c 0x00000000   Number         0  bmm150.o ABSOLUTE
    ..\..\..\..\..\..\driver\nrf_flash\nrf_flash.c 0x00000000   Number         0  nrf_flash.o ABSOLUTE
    ..\..\..\..\..\..\driver\sys_queue\sys_queue.c 0x00000000   Number         0  sys_queue.o ABSOLUTE
    ..\..\..\..\..\..\external\fprintf\nrf_fprintf.c 0x00000000   Number         0  nrf_fprintf.o ABSOLUTE
    ..\..\..\..\..\..\external\fprintf\nrf_fprintf_format.c 0x00000000   Number         0  nrf_fprintf_format.o ABSOLUTE
    ..\..\..\..\..\..\external\segger_rtt\SEGGER_RTT.c 0x00000000   Number         0  segger_rtt.o ABSOLUTE
    ..\..\..\..\..\..\external\segger_rtt\SEGGER_RTT_Syscalls_KEIL.c 0x00000000   Number         0  segger_rtt_syscalls_keil.o ABSOLUTE
    ..\..\..\..\..\..\external\segger_rtt\SEGGER_RTT_printf.c 0x00000000   Number         0  segger_rtt_printf.o ABSOLUTE
    ..\..\..\..\..\..\external\utf_converter\utf.c 0x00000000   Number         0  utf.o ABSOLUTE
    ..\..\..\..\..\..\integration\nrfx\legacy\nrf_drv_clock.c 0x00000000   Number         0  nrf_drv_clock.o ABSOLUTE
    ..\..\..\..\..\..\integration\nrfx\legacy\nrf_drv_spi.c 0x00000000   Number         0  nrf_drv_spi.o ABSOLUTE
    ..\..\..\..\..\..\modules\nrfx\drivers\src\nrfx_clock.c 0x00000000   Number         0  nrfx_clock.o ABSOLUTE
    ..\..\..\..\..\..\modules\nrfx\drivers\src\nrfx_gpiote.c 0x00000000   Number         0  nrfx_gpiote.o ABSOLUTE
    ..\..\..\..\..\..\modules\nrfx\drivers\src\nrfx_rtc.c 0x00000000   Number         0  nrfx_rtc.o ABSOLUTE
    ..\..\..\..\..\..\modules\nrfx\drivers\src\nrfx_saadc.c 0x00000000   Number         0  nrfx_saadc.o ABSOLUTE
    ..\..\..\..\..\..\modules\nrfx\drivers\src\nrfx_spi.c 0x00000000   Number         0  nrfx_spi.o ABSOLUTE
    ..\..\..\..\..\..\modules\nrfx\drivers\src\nrfx_spim.c 0x00000000   Number         0  nrfx_spim.o ABSOLUTE
    ..\..\..\..\..\..\modules\nrfx\drivers\src\nrfx_wdt.c 0x00000000   Number         0  nrfx_wdt.o ABSOLUTE
    ..\..\..\..\..\..\modules\nrfx\drivers\src\prs\nrfx_prs.c 0x00000000   Number         0  nrfx_prs.o ABSOLUTE
    ..\..\..\..\..\..\modules\nrfx\soc\nrfx_atomic.c 0x00000000   Number         0  nrfx_atomic.o ABSOLUTE
    ..\..\..\main.c                          0x00000000   Number         0  main.o ABSOLUTE
    ..\\..\\..\\..\\..\\..\\components\\ble\\ble_advertising\\ble_advertising.c 0x00000000   Number         0  ble_advertising.o ABSOLUTE
    ..\\..\\..\\..\\..\\..\\components\\ble\\ble_link_ctx_manager\\ble_link_ctx_manager.c 0x00000000   Number         0  ble_link_ctx_manager.o ABSOLUTE
    ..\\..\\..\\..\\..\\..\\components\\ble\\ble_services\\ble_nus\\ble_nus.c 0x00000000   Number         0  ble_nus.o ABSOLUTE
    ..\\..\\..\\..\\..\\..\\components\\ble\\common\\ble_advdata.c 0x00000000   Number         0  ble_advdata.o ABSOLUTE
    ..\\..\\..\\..\\..\\..\\components\\ble\\common\\ble_conn_params.c 0x00000000   Number         0  ble_conn_params.o ABSOLUTE
    ..\\..\\..\\..\\..\\..\\components\\ble\\common\\ble_conn_state.c 0x00000000   Number         0  ble_conn_state.o ABSOLUTE
    ..\\..\\..\\..\\..\\..\\components\\ble\\common\\ble_srv_common.c 0x00000000   Number         0  ble_srv_common.o ABSOLUTE
    ..\\..\\..\\..\\..\\..\\components\\ble\\nrf_ble_gatt\\nrf_ble_gatt.c 0x00000000   Number         0  nrf_ble_gatt.o ABSOLUTE
    ..\\..\\..\\..\\..\\..\\components\\ble\\nrf_ble_qwr\\nrf_ble_qwr.c 0x00000000   Number         0  nrf_ble_qwr.o ABSOLUTE
    ..\\..\\..\\..\\..\\..\\components\\boards\\boards.c 0x00000000   Number         0  boards.o ABSOLUTE
    ..\\..\\..\\..\\..\\..\\components\\libraries\\atomic\\nrf_atomic.c 0x00000000   Number         0  nrf_atomic.o ABSOLUTE
    ..\\..\\..\\..\\..\\..\\components\\libraries\\atomic_fifo\\nrf_atfifo.c 0x00000000   Number         0  nrf_atfifo.o ABSOLUTE
    ..\\..\\..\\..\\..\\..\\components\\libraries\\atomic_flags\\nrf_atflags.c 0x00000000   Number         0  nrf_atflags.o ABSOLUTE
    ..\\..\\..\\..\\..\\..\\components\\libraries\\balloc\\nrf_balloc.c 0x00000000   Number         0  nrf_balloc.o ABSOLUTE
    ..\\..\\..\\..\\..\\..\\components\\libraries\\bsp\\bsp.c 0x00000000   Number         0  bsp.o ABSOLUTE
    ..\\..\\..\\..\\..\\..\\components\\libraries\\bsp\\bsp_btn_ble.c 0x00000000   Number         0  bsp_btn_ble.o ABSOLUTE
    ..\\..\\..\\..\\..\\..\\components\\libraries\\button\\app_button.c 0x00000000   Number         0  app_button.o ABSOLUTE
    ..\\..\\..\\..\\..\\..\\components\\libraries\\experimental_section_vars\\nrf_section_iter.c 0x00000000   Number         0  nrf_section_iter.o ABSOLUTE
    ..\\..\\..\\..\\..\\..\\components\\libraries\\fifo\\app_fifo.c 0x00000000   Number         0  app_fifo.o ABSOLUTE
    ..\\..\\..\\..\\..\\..\\components\\libraries\\fstorage\\nrf_fstorage.c 0x00000000   Number         0  nrf_fstorage.o ABSOLUTE
    ..\\..\\..\\..\\..\\..\\components\\libraries\\fstorage\\nrf_fstorage_sd.c 0x00000000   Number         0  nrf_fstorage_sd.o ABSOLUTE
    ..\\..\\..\\..\\..\\..\\components\\libraries\\hardfault\\hardfault_implementation.c 0x00000000   Number         0  hardfault_implementation.o ABSOLUTE
    ..\\..\\..\\..\\..\\..\\components\\libraries\\log\\src\\nrf_log_backend_rtt.c 0x00000000   Number         0  nrf_log_backend_rtt.o ABSOLUTE
    ..\\..\\..\\..\\..\\..\\components\\libraries\\log\\src\\nrf_log_backend_serial.c 0x00000000   Number         0  nrf_log_backend_serial.o ABSOLUTE
    ..\\..\\..\\..\\..\\..\\components\\libraries\\log\\src\\nrf_log_default_backends.c 0x00000000   Number         0  nrf_log_default_backends.o ABSOLUTE
    ..\\..\\..\\..\\..\\..\\components\\libraries\\log\\src\\nrf_log_frontend.c 0x00000000   Number         0  nrf_log_frontend.o ABSOLUTE
    ..\\..\\..\\..\\..\\..\\components\\libraries\\log\\src\\nrf_log_str_formatter.c 0x00000000   Number         0  nrf_log_str_formatter.o ABSOLUTE
    ..\\..\\..\\..\\..\\..\\components\\libraries\\memobj\\nrf_memobj.c 0x00000000   Number         0  nrf_memobj.o ABSOLUTE
    ..\\..\\..\\..\\..\\..\\components\\libraries\\pwr_mgmt\\nrf_pwr_mgmt.c 0x00000000   Number         0  nrf_pwr_mgmt.o ABSOLUTE
    ..\\..\\..\\..\\..\\..\\components\\libraries\\ringbuf\\nrf_ringbuf.c 0x00000000   Number         0  nrf_ringbuf.o ABSOLUTE
    ..\\..\\..\\..\\..\\..\\components\\libraries\\scheduler\\app_scheduler.c 0x00000000   Number         0  app_scheduler.o ABSOLUTE
    ..\\..\\..\\..\\..\\..\\components\\libraries\\sortlist\\nrf_sortlist.c 0x00000000   Number         0  nrf_sortlist.o ABSOLUTE
    ..\\..\\..\\..\\..\\..\\components\\libraries\\strerror\\nrf_strerror.c 0x00000000   Number         0  nrf_strerror.o ABSOLUTE
    ..\\..\\..\\..\\..\\..\\components\\libraries\\timer\\app_timer2.c 0x00000000   Number         0  app_timer2.o ABSOLUTE
    ..\\..\\..\\..\\..\\..\\components\\libraries\\timer\\drv_rtc.c 0x00000000   Number         0  drv_rtc.o ABSOLUTE
    ..\\..\\..\\..\\..\\..\\components\\libraries\\uart\\app_uart_fifo.c 0x00000000   Number         0  app_uart_fifo.o ABSOLUTE
    ..\\..\\..\\..\\..\\..\\components\\libraries\\uart\\retarget.c 0x00000000   Number         0  retarget.o ABSOLUTE
    ..\\..\\..\\..\\..\\..\\components\\libraries\\util\\app_error.c 0x00000000   Number         0  app_error.o ABSOLUTE
    ..\\..\\..\\..\\..\\..\\components\\libraries\\util\\app_error_handler_keil.c 0x00000000   Number         0  app_error_handler_keil.o ABSOLUTE
    ..\\..\\..\\..\\..\\..\\components\\libraries\\util\\app_error_weak.c 0x00000000   Number         0  app_error_weak.o ABSOLUTE
    ..\\..\\..\\..\\..\\..\\components\\libraries\\util\\app_util_platform.c 0x00000000   Number         0  app_util_platform.o ABSOLUTE
    ..\\..\\..\\..\\..\\..\\components\\libraries\\util\\nrf_assert.c 0x00000000   Number         0  nrf_assert.o ABSOLUTE
    ..\\..\\..\\..\\..\\..\\components\\softdevice\\common\\nrf_sdh.c 0x00000000   Number         0  nrf_sdh.o ABSOLUTE
    ..\\..\\..\\..\\..\\..\\components\\softdevice\\common\\nrf_sdh_ble.c 0x00000000   Number         0  nrf_sdh_ble.o ABSOLUTE
    ..\\..\\..\\..\\..\\..\\components\\softdevice\\common\\nrf_sdh_soc.c 0x00000000   Number         0  nrf_sdh_soc.o ABSOLUTE
    ..\\..\\..\\..\\..\\..\\driver\\nrf_flash\\nrf_flash.c 0x00000000   Number         0  nrf_flash.o ABSOLUTE
    ..\\..\\..\\..\\..\\..\\external\\fprintf\\nrf_fprintf.c 0x00000000   Number         0  nrf_fprintf.o ABSOLUTE
    ..\\..\\..\\..\\..\\..\\external\\fprintf\\nrf_fprintf_format.c 0x00000000   Number         0  nrf_fprintf_format.o ABSOLUTE
    ..\\..\\..\\..\\..\\..\\external\\segger_rtt\\SEGGER_RTT.c 0x00000000   Number         0  segger_rtt.o ABSOLUTE
    ..\\..\\..\\..\\..\\..\\external\\segger_rtt\\SEGGER_RTT_Syscalls_KEIL.c 0x00000000   Number         0  segger_rtt_syscalls_keil.o ABSOLUTE
    ..\\..\\..\\..\\..\\..\\external\\segger_rtt\\SEGGER_RTT_printf.c 0x00000000   Number         0  segger_rtt_printf.o ABSOLUTE
    ..\\..\\..\\..\\..\\..\\integration\\nrfx\\legacy\\nrf_drv_clock.c 0x00000000   Number         0  nrf_drv_clock.o ABSOLUTE
    ..\\..\\..\\..\\..\\..\\integration\\nrfx\\legacy\\nrf_drv_spi.c 0x00000000   Number         0  nrf_drv_spi.o ABSOLUTE
    ..\\..\\..\\..\\..\\..\\modules\\nrfx\\drivers\\src\\nrfx_clock.c 0x00000000   Number         0  nrfx_clock.o ABSOLUTE
    ..\\..\\..\\..\\..\\..\\modules\\nrfx\\drivers\\src\\nrfx_gpiote.c 0x00000000   Number         0  nrfx_gpiote.o ABSOLUTE
    ..\\..\\..\\..\\..\\..\\modules\\nrfx\\drivers\\src\\nrfx_rtc.c 0x00000000   Number         0  nrfx_rtc.o ABSOLUTE
    ..\\..\\..\\..\\..\\..\\modules\\nrfx\\drivers\\src\\nrfx_saadc.c 0x00000000   Number         0  nrfx_saadc.o ABSOLUTE
    ..\\..\\..\\..\\..\\..\\modules\\nrfx\\drivers\\src\\nrfx_spi.c 0x00000000   Number         0  nrfx_spi.o ABSOLUTE
    ..\\..\\..\\..\\..\\..\\modules\\nrfx\\drivers\\src\\nrfx_spim.c 0x00000000   Number         0  nrfx_spim.o ABSOLUTE
    ..\\..\\..\\..\\..\\..\\modules\\nrfx\\drivers\\src\\nrfx_wdt.c 0x00000000   Number         0  nrfx_wdt.o ABSOLUTE
    ..\\..\\..\\..\\..\\..\\modules\\nrfx\\drivers\\src\\prs\\nrfx_prs.c 0x00000000   Number         0  nrfx_prs.o ABSOLUTE
    ..\\..\\..\\..\\..\\..\\modules\\nrfx\\soc\\nrfx_atomic.c 0x00000000   Number         0  nrfx_atomic.o ABSOLUTE
    ..\\..\\..\\main.c                       0x00000000   Number         0  main.o ABSOLUTE
    RTE\Device\nRF52805_xxAA\arm_startup_nrf52805.s 0x00000000   Number         0  arm_startup_nrf52805.o ABSOLUTE
    RTE\Device\nRF52805_xxAA\system_nrf52805.c 0x00000000   Number         0  system_nrf52805.o ABSOLUTE
    RTE\\Device\\nRF52805_xxAA\\system_nrf52805.c 0x00000000   Number         0  system_nrf52805.o ABSOLUTE
    dc.s                                     0x00000000   Number         0  dc.o ABSOLUTE
    handlers.s                               0x00000000   Number         0  handlers.o ABSOLUTE
    init.s                                   0x00000000   Number         0  init.o ABSOLUTE
    RESET                                    0x00019000   Section      512  arm_startup_nrf52805.o(RESET)
    .ARM.Collect$$$$00000000                 0x00019200   Section        0  entry.o(.ARM.Collect$$$$00000000)
    .ARM.Collect$$$$00000001                 0x00019200   Section        4  entry2.o(.ARM.Collect$$$$00000001)
    .ARM.Collect$$$$00000004                 0x00019204   Section        4  entry5.o(.ARM.Collect$$$$00000004)
    .ARM.Collect$$$$00000008                 0x00019208   Section        0  entry7b.o(.ARM.Collect$$$$00000008)
    .ARM.Collect$$$$0000000A                 0x00019208   Section        0  entry8b.o(.ARM.Collect$$$$0000000A)
    .ARM.Collect$$$$0000000B                 0x00019208   Section        8  entry9a.o(.ARM.Collect$$$$0000000B)
    .ARM.Collect$$$$0000000E                 0x00019210   Section        4  entry12b.o(.ARM.Collect$$$$0000000E)
    .ARM.Collect$$$$0000000F                 0x00019214   Section        0  entry10a.o(.ARM.Collect$$$$0000000F)
    .ARM.Collect$$$$00000011                 0x00019214   Section        0  entry11a.o(.ARM.Collect$$$$00000011)
    .ARM.Collect$$$$00002712                 0x00019214   Section        4  entry2.o(.ARM.Collect$$$$00002712)
    __lit__00000000                          0x00019214   Data           4  entry2.o(.ARM.Collect$$$$00002712)
    .emb_text                                0x00019218   Section       26  app_error_handler_keil.o(.emb_text)
    .emb_text                                0x00019234   Section      200  nrf_atfifo.o(.emb_text)
    .emb_text                                0x000192fc   Section      226  nrf_atomic.o(.emb_text)
    .text                                    0x000193e0   Section       36  arm_startup_nrf52805.o(.text)
    .text                                    0x00019404   Section        0  uldiv.o(.text)
    .text                                    0x00019466   Section        0  llshl.o(.text)
    .text                                    0x00019484   Section        0  ctype_o.o(.text)
    .text                                    0x0001948c   Section        0  memcpya.o(.text)
    .text                                    0x000194b0   Section        0  memseta.o(.text)
    .text                                    0x000194d4   Section        0  strlen.o(.text)
    .text                                    0x000194e2   Section        0  dmul.o(.text)
    .text                                    0x000195c6   Section        0  ddiv.o(.text)
    .text                                    0x000196a4   Section        0  dscalb.o(.text)
    .text                                    0x000196d2   Section        0  dflti.o(.text)
    .text                                    0x000196f4   Section        0  dfltui.o(.text)
    .text                                    0x0001970e   Section        0  dfixui.o(.text)
    .text                                    0x00019740   Section        0  llushr.o(.text)
    .text                                    0x00019760   Section        0  depilogue.o(.text)
    .text                                    0x00019760   Section        0  iusefp.o(.text)
    .text                                    0x0001981c   Section       36  init.o(.text)
    .text                                    0x00019840   Section        0  __dczerorl2.o(.text)
    i.GPIOTE_IRQHandler                      0x00019898   Section        0  nrfx_gpiote.o(i.GPIOTE_IRQHandler)
    i.POWER_CLOCK_IRQHandler                 0x00019a08   Section        0  nrfx_clock.o(i.POWER_CLOCK_IRQHandler)
    i.RTC0_IRQHandler                        0x00019a5c   Section        0  nrfx_rtc.o(i.RTC0_IRQHandler)
    i.RTC1_IRQHandler                        0x00019b0c   Section        0  drv_rtc.o(i.RTC1_IRQHandler)
    i.SAADC_IRQHandler                       0x00019b20   Section        0  nrfx_saadc.o(i.SAADC_IRQHandler)
    i.SEGGER_RTT_Init                        0x00019c94   Section        0  segger_rtt.o(i.SEGGER_RTT_Init)
    i.SEGGER_RTT_WriteNoLock                 0x00019c98   Section        0  segger_rtt.o(i.SEGGER_RTT_WriteNoLock)
    i.SPIM0_SPIS0_SPI0_IRQHandler            0x00019d74   Section        0  nrfx_spi.o(i.SPIM0_SPIS0_SPI0_IRQHandler)
    i.SWI2_IRQHandler                        0x00019e28   Section        0  nrf_sdh.o(i.SWI2_IRQHandler)
    i.SystemInit                             0x00019e5c   Section        0  system_nrf52805.o(i.SystemInit)
    i.WDT_IRQHandler                         0x0001a008   Section        0  nrfx_wdt.o(i.WDT_IRQHandler)
    i._DoInit                                0x0001a034   Section        0  segger_rtt.o(i._DoInit)
    _DoInit                                  0x0001a035   Thumb Code    76  segger_rtt.o(i._DoInit)
    i._WriteBlocking                         0x0001a09c   Section        0  segger_rtt.o(i._WriteBlocking)
    _WriteBlocking                           0x0001a09d   Thumb Code    88  segger_rtt.o(i._WriteBlocking)
    i.__ARM_common_memclr4_7                 0x0001a0f4   Section        0  ble_advertising.o(i.__ARM_common_memclr4_7)
    i.__ARM_common_memcpy4_7                 0x0001a0fe   Section        0  segger_rtt.o(i.__ARM_common_memcpy4_7)
    i.__scatterload_copy                     0x0001a110   Section       14  handlers.o(i.__scatterload_copy)
    i.__scatterload_null                     0x0001a11e   Section        2  handlers.o(i.__scatterload_null)
    i.__scatterload_zeroinit                 0x0001a120   Section       14  handlers.o(i.__scatterload_zeroinit)
    i.app_error_fault_handler                0x0001a130   Section        0  app_error_weak.o(i.app_error_fault_handler)
    i.app_error_save_and_stop                0x0001a29c   Section        0  app_error.o(i.app_error_save_and_stop)
    i.app_open_bmi160_aux                    0x0001a308   Section        0  main.o(i.app_open_bmi160_aux)
    i.app_open_bmi160_fifo                   0x0001a458   Section        0  main.o(i.app_open_bmi160_fifo)
    i.app_timer_callback                     0x0001a564   Section        0  main.o(i.app_timer_callback)
    i.app_timer_create                       0x0001a5ec   Section        0  app_timer2.o(i.app_timer_create)
    i.app_timer_init                         0x0001a60c   Section        0  app_timer2.o(i.app_timer_init)
    i.app_timer_start                        0x0001a66c   Section        0  app_timer2.o(i.app_timer_start)
    i.app_timer_stop                         0x0001a714   Section        0  app_timer2.o(i.app_timer_stop)
    i.app_util_critical_region_enter         0x0001a780   Section        0  app_util_platform.o(i.app_util_critical_region_enter)
    i.app_util_critical_region_exit          0x0001a7dc   Section        0  app_util_platform.o(i.app_util_critical_region_exit)
    i.blcm_link_ctx_get                      0x0001a814   Section        0  ble_link_ctx_manager.o(i.blcm_link_ctx_get)
    i.ble_advdata_encode                     0x0001a868   Section        0  ble_advdata.o(i.ble_advdata_encode)
    i.ble_advdata_parse                      0x0001ac38   Section        0  ble_advdata.o(i.ble_advdata_parse)
    i.ble_advdata_search                     0x0001ac58   Section        0  ble_advdata.o(i.ble_advdata_search)
    i.ble_advertising_conn_cfg_tag_set       0x0001acb8   Section        0  ble_advertising.o(i.ble_advertising_conn_cfg_tag_set)
    i.ble_advertising_init                   0x0001acbe   Section        0  ble_advertising.o(i.ble_advertising_init)
    i.ble_advertising_on_ble_evt             0x0001adcc   Section        0  ble_advertising.o(i.ble_advertising_on_ble_evt)
    i.ble_advertising_start                  0x0001ae5c   Section        0  ble_advertising.o(i.ble_advertising_start)
    i.ble_conn_params_init                   0x0001b0ec   Section        0  ble_conn_params.o(i.ble_conn_params_init)
    i.ble_conn_state_conn_idx                0x0001b168   Section        0  ble_conn_state.o(i.ble_conn_state_conn_idx)
    i.ble_evt_handler                        0x0001b188   Section        0  main.o(i.ble_evt_handler)
    ble_evt_handler                          0x0001b189   Thumb Code   318  main.o(i.ble_evt_handler)
    i.ble_evt_handler                        0x0001b324   Section        0  bsp_btn_ble.o(i.ble_evt_handler)
    ble_evt_handler                          0x0001b325   Thumb Code   186  bsp_btn_ble.o(i.ble_evt_handler)
    i.ble_evt_handler                        0x0001b3e4   Section        0  ble_conn_params.o(i.ble_evt_handler)
    ble_evt_handler                          0x0001b3e5   Thumb Code   538  ble_conn_params.o(i.ble_evt_handler)
    i.ble_evt_handler                        0x0001b608   Section        0  ble_conn_state.o(i.ble_evt_handler)
    ble_evt_handler                          0x0001b609   Thumb Code   306  ble_conn_state.o(i.ble_evt_handler)
    i.ble_nus_data_send                      0x0001b77c   Section        0  ble_nus.o(i.ble_nus_data_send)
    i.ble_nus_init                           0x0001b7f4   Section        0  ble_nus.o(i.ble_nus_init)
    i.ble_nus_on_ble_evt                     0x0001b8e8   Section        0  ble_nus.o(i.ble_nus_on_ble_evt)
    i.ble_send_data                          0x0001ba7c   Section        0  main.o(i.ble_send_data)
    ble_send_data                            0x0001ba7d   Thumb Code    54  main.o(i.ble_send_data)
    i.ble_send_packet                        0x0001bac0   Section        0  main.o(i.ble_send_packet)
    i.ble_send_ram_and_flash_sensor_data     0x0001bb34   Section        0  main.o(i.ble_send_ram_and_flash_sensor_data)
    i.ble_srv_is_notification_enabled        0x0001bc80   Section        0  ble_srv_common.o(i.ble_srv_is_notification_enabled)
    i.bmi160_aux_init                        0x0001bc88   Section        0  bmi160.o(i.bmi160_aux_init)
    i.bmi160_aux_read                        0x0001bd74   Section        0  bmi160.o(i.bmi160_aux_read)
    i.bmi160_aux_write                       0x0001be90   Section        0  bmi160.o(i.bmi160_aux_write)
    i.bmi160_extract_accel                   0x0001bf04   Section        0  bmi160.o(i.bmi160_extract_accel)
    i.bmi160_extract_aux                     0x0001c2b2   Section        0  bmi160.o(i.bmi160_extract_aux)
    i.bmi160_extract_gyro                    0x0001c680   Section        0  bmi160.o(i.bmi160_extract_gyro)
    i.bmi160_get_fifo_data                   0x0001ca00   Section        0  bmi160.o(i.bmi160_get_fifo_data)
    i.bmi160_get_regs                        0x0001ca7e   Section        0  bmi160.o(i.bmi160_get_regs)
    i.bmi160_init                            0x0001cab4   Section        0  bmi160.o(i.bmi160_init)
    i.bmi160_set_aux_auto_mode               0x0001cb96   Section        0  bmi160.o(i.bmi160_set_aux_auto_mode)
    i.bmi160_set_fifo_config                 0x0001cc76   Section        0  bmi160.o(i.bmi160_set_fifo_config)
    i.bmi160_set_fifo_flush                  0x0001ccfa   Section        0  bmi160.o(i.bmi160_set_fifo_flush)
    i.bmi160_set_power_mode                  0x0001cd1e   Section        0  bmi160.o(i.bmi160_set_power_mode)
    i.bmi160_set_regs                        0x0001ce30   Section        0  bmi160.o(i.bmi160_set_regs)
    i.bmi160_set_sens_conf                   0x0001cec2   Section        0  bmi160.o(i.bmi160_set_sens_conf)
    i.bmi160_soft_reset                      0x0001d090   Section        0  bmi160.o(i.bmi160_soft_reset)
    i.bmm150_aux_mag_data                    0x0001d100   Section        0  bmm150.o(i.bmm150_aux_mag_data)
    i.bmm150_aux_read                        0x0001d2e4   Section        0  main.o(i.bmm150_aux_read)
    i.bmm150_aux_write                       0x0001d2fc   Section        0  main.o(i.bmm150_aux_write)
    i.bmm150_get_regs                        0x0001d314   Section        0  bmm150.o(i.bmm150_get_regs)
    i.bmm150_init                            0x0001d354   Section        0  bmm150.o(i.bmm150_init)
    i.bmm150_set_op_mode                     0x0001d48e   Section        0  bmm150.o(i.bmm150_set_op_mode)
    i.bmm150_set_presetmode                  0x0001d5ae   Section        0  bmm150.o(i.bmm150_set_presetmode)
    i.bmm150_set_regs                        0x0001d63a   Section        0  bmm150.o(i.bmm150_set_regs)
    i.bsp_board_button_idx_to_pin            0x0001d674   Section        0  boards.o(i.bsp_board_button_idx_to_pin)
    i.bsp_board_led_invert                   0x0001d680   Section        0  boards.o(i.bsp_board_led_invert)
    i.bsp_board_led_off                      0x0001d6a8   Section        0  boards.o(i.bsp_board_led_off)
    i.bsp_board_led_on                       0x0001d6c0   Section        0  boards.o(i.bsp_board_led_on)
    i.bsp_board_led_state_get                0x0001d6d8   Section        0  boards.o(i.bsp_board_led_state_get)
    i.bsp_board_leds_off                     0x0001d6fc   Section        0  boards.o(i.bsp_board_leds_off)
    i.bsp_board_leds_on                      0x0001d720   Section        0  boards.o(i.bsp_board_leds_on)
    i.bsp_board_pin_to_button_idx            0x0001d744   Section        0  boards.o(i.bsp_board_pin_to_button_idx)
    i.bsp_btn_ble_sleep_mode_prepare         0x0001d76a   Section        0  bsp_btn_ble.o(i.bsp_btn_ble_sleep_mode_prepare)
    i.bsp_button_event_handler               0x0001d78c   Section        0  bsp.o(i.bsp_button_event_handler)
    bsp_button_event_handler                 0x0001d78d   Thumb Code   142  bsp.o(i.bsp_button_event_handler)
    i.bsp_event_to_button_action_assign      0x0001d82c   Section        0  bsp.o(i.bsp_event_to_button_action_assign)
    i.bsp_indication_set                     0x0001d87c   Section        0  bsp.o(i.bsp_indication_set)
    i.bsp_led_indication                     0x0001d898   Section        0  bsp.o(i.bsp_led_indication)
    bsp_led_indication                       0x0001d899   Thumb Code   692  bsp.o(i.bsp_led_indication)
    i.bsp_wakeup_button_enable               0x0001db54   Section        0  bsp.o(i.bsp_wakeup_button_enable)
    i.buf_prealloc                           0x0001db88   Section        0  nrf_log_frontend.o(i.buf_prealloc)
    buf_prealloc                             0x0001db89   Thumb Code   290  nrf_log_frontend.o(i.buf_prealloc)
    i.buffer_add                             0x0001dcb4   Section        0  nrf_fprintf_format.o(i.buffer_add)
    buffer_add                               0x0001dcb5   Thumb Code    46  nrf_fprintf_format.o(i.buffer_add)
    i.calc_checksum                          0x0001dce2   Section        0  main.o(i.calc_checksum)
    calc_checksum                            0x0001dce3   Thumb Code    48  main.o(i.calc_checksum)
    i.characteristic_add                     0x0001dd12   Section        0  ble_srv_common.o(i.characteristic_add)
    i.clock_irq_handler                      0x0001deac   Section        0  nrf_drv_clock.o(i.clock_irq_handler)
    clock_irq_handler                        0x0001dead   Thumb Code    70  nrf_drv_clock.o(i.clock_irq_handler)
    i.compare_func                           0x0001def8   Section        0  app_timer2.o(i.compare_func)
    compare_func                             0x0001def9   Thumb Code    22  app_timer2.o(i.compare_func)
    i.conn_handle_list_get                   0x0001df0e   Section        0  ble_conn_state.o(i.conn_handle_list_get)
    i.conn_params_error_handler              0x0001df60   Section        0  main.o(i.conn_params_error_handler)
    conn_params_error_handler                0x0001df61   Thumb Code    10  main.o(i.conn_params_error_handler)
    i.drv_rtc_compare_disable                0x0001df7c   Section        0  drv_rtc.o(i.drv_rtc_compare_disable)
    i.drv_rtc_compare_pending                0x0001df92   Section        0  drv_rtc.o(i.drv_rtc_compare_pending)
    i.drv_rtc_compare_set                    0x0001dfb8   Section        0  drv_rtc.o(i.drv_rtc_compare_set)
    i.drv_rtc_counter_get                    0x0001e004   Section        0  drv_rtc.o(i.drv_rtc_counter_get)
    i.drv_rtc_init                           0x0001e00c   Section        0  drv_rtc.o(i.drv_rtc_init)
    i.drv_rtc_irq_trigger                    0x0001e0ec   Section        0  drv_rtc.o(i.drv_rtc_irq_trigger)
    i.drv_rtc_overflow_enable                0x0001e108   Section        0  drv_rtc.o(i.drv_rtc_overflow_enable)
    i.drv_rtc_overflow_pending               0x0001e11c   Section        0  drv_rtc.o(i.drv_rtc_overflow_pending)
    i.drv_rtc_start                          0x0001e13e   Section        0  drv_rtc.o(i.drv_rtc_start)
    i.drv_rtc_stop                           0x0001e146   Section        0  drv_rtc.o(i.drv_rtc_stop)
    i.drv_rtc_windowed_compare_set           0x0001e150   Section        0  drv_rtc.o(i.drv_rtc_windowed_compare_set)
    i.erase                                  0x0001e250   Section        0  nrf_fstorage_sd.o(i.erase)
    erase                                    0x0001e251   Thumb Code    92  nrf_fstorage_sd.o(i.erase)
    i.fstorage_evt_handler                   0x0001e2b4   Section        0  nrf_flash.o(i.fstorage_evt_handler)
    fstorage_evt_handler                     0x0001e2b5   Thumb Code    58  nrf_flash.o(i.fstorage_evt_handler)
    i.gatt_evt_handler                       0x0001e368   Section        0  main.o(i.gatt_evt_handler)
    i.init                                   0x0001e3e8   Section        0  nrf_fstorage_sd.o(i.init)
    init                                     0x0001e3e9   Thumb Code    40  nrf_fstorage_sd.o(i.init)
    i.is_busy                                0x0001e41c   Section        0  nrf_fstorage_sd.o(i.is_busy)
    is_busy                                  0x0001e41d   Thumb Code    12  nrf_fstorage_sd.o(i.is_busy)
    i.log_pending_hook                       0x0001e42c   Section        0  nrf_log_frontend.o(i.log_pending_hook)
    i.main                                   0x0001e430   Section        0  main.o(i.main)
    i.nrf52_read_spi                         0x0001ebc4   Section        0  main.o(i.nrf52_read_spi)
    i.nrf52_write_spi                        0x0001ec24   Section        0  main.o(i.nrf52_write_spi)
    i.nrf_atfifo_clear                       0x0001ec78   Section        0  nrf_atfifo.o(i.nrf_atfifo_clear)
    i.nrf_atfifo_init                        0x0001ec88   Section        0  nrf_atfifo.o(i.nrf_atfifo_init)
    i.nrf_atfifo_item_alloc                  0x0001ecb2   Section        0  nrf_atfifo.o(i.nrf_atfifo_item_alloc)
    i.nrf_atfifo_item_free                   0x0001ecca   Section        0  nrf_atfifo.o(i.nrf_atfifo_item_free)
    i.nrf_atfifo_item_get                    0x0001ece0   Section        0  nrf_atfifo.o(i.nrf_atfifo_item_get)
    i.nrf_atfifo_item_put                    0x0001ecf8   Section        0  nrf_atfifo.o(i.nrf_atfifo_item_put)
    i.nrf_atflags_clear                      0x0001ed0e   Section        0  nrf_atflags.o(i.nrf_atflags_clear)
    i.nrf_atflags_get                        0x0001ed26   Section        0  nrf_atflags.o(i.nrf_atflags_get)
    i.nrf_atflags_set                        0x0001ed3e   Section        0  nrf_atflags.o(i.nrf_atflags_set)
    i.nrf_atomic_flag_clear_fetch            0x0001ed54   Section        0  nrf_atomic.o(i.nrf_atomic_flag_clear_fetch)
    i.nrf_atomic_flag_set                    0x0001ed60   Section        0  nrf_atomic.o(i.nrf_atomic_flag_set)
    i.nrf_atomic_flag_set_fetch              0x0001ed6e   Section        0  nrf_atomic.o(i.nrf_atomic_flag_set_fetch)
    i.nrf_atomic_u32_add                     0x0001ed7a   Section        0  nrf_atomic.o(i.nrf_atomic_u32_add)
    i.nrf_atomic_u32_and                     0x0001ed86   Section        0  nrf_atomic.o(i.nrf_atomic_u32_and)
    i.nrf_atomic_u32_fetch_store             0x0001ed92   Section        0  nrf_atomic.o(i.nrf_atomic_u32_fetch_store)
    i.nrf_atomic_u32_or                      0x0001ed9c   Section        0  nrf_atomic.o(i.nrf_atomic_u32_or)
    i.nrf_atomic_u32_sub                     0x0001eda8   Section        0  nrf_atomic.o(i.nrf_atomic_u32_sub)
    i.nrf_balloc_alloc                       0x0001edb4   Section        0  nrf_balloc.o(i.nrf_balloc_alloc)
    i.nrf_balloc_free                        0x0001edf8   Section        0  nrf_balloc.o(i.nrf_balloc_free)
    i.nrf_balloc_init                        0x0001ee28   Section        0  nrf_balloc.o(i.nrf_balloc_init)
    i.nrf_ble_gatt_att_mtu_periph_set        0x0001ee60   Section        0  nrf_ble_gatt.o(i.nrf_ble_gatt_att_mtu_periph_set)
    i.nrf_ble_gatt_init                      0x0001ee78   Section        0  nrf_ble_gatt.o(i.nrf_ble_gatt_init)
    i.nrf_ble_gatt_on_ble_evt                0x0001ee9c   Section        0  nrf_ble_gatt.o(i.nrf_ble_gatt_on_ble_evt)
    i.nrf_ble_qwr_conn_handle_assign         0x0001f150   Section        0  nrf_ble_qwr.o(i.nrf_ble_qwr_conn_handle_assign)
    i.nrf_ble_qwr_init                       0x0001f166   Section        0  nrf_ble_qwr.o(i.nrf_ble_qwr_init)
    i.nrf_ble_qwr_on_ble_evt                 0x0001f18c   Section        0  nrf_ble_qwr.o(i.nrf_ble_qwr_on_ble_evt)
    i.nrf_delay_ms                           0x0001f290   Section        0  main.o(i.nrf_delay_ms)
    nrf_delay_ms                             0x0001f291   Thumb Code    28  main.o(i.nrf_delay_ms)
    i.nrf_drv_spi_init                       0x0001f2b0   Section        0  nrf_drv_spi.o(i.nrf_drv_spi_init)
    i.nrf_flash_erase                        0x0001f2d8   Section        0  nrf_flash.o(i.nrf_flash_erase)
    i.nrf_flash_init                         0x0001f340   Section        0  nrf_flash.o(i.nrf_flash_init)
    i.nrf_flash_read                         0x0001f448   Section        0  nrf_flash.o(i.nrf_flash_read)
    i.nrf_flash_write                        0x0001f4ac   Section        0  nrf_flash.o(i.nrf_flash_write)
    i.nrf_fprintf                            0x0001f524   Section        0  nrf_fprintf.o(i.nrf_fprintf)
    i.nrf_fprintf_buffer_flush               0x0001f544   Section        0  nrf_fprintf.o(i.nrf_fprintf_buffer_flush)
    i.nrf_fprintf_fmt                        0x0001f560   Section        0  nrf_fprintf_format.o(i.nrf_fprintf_fmt)
    i.nrf_fstorage_erase                     0x0001f998   Section        0  nrf_fstorage.o(i.nrf_fstorage_erase)
    i.nrf_fstorage_init                      0x0001fac8   Section        0  nrf_fstorage.o(i.nrf_fstorage_init)
    i.nrf_fstorage_is_busy                   0x0001fb68   Section        0  nrf_fstorage.o(i.nrf_fstorage_is_busy)
    i.nrf_fstorage_read                      0x0001fbc0   Section        0  nrf_fstorage.o(i.nrf_fstorage_read)
    i.nrf_fstorage_sdh_req_handler           0x0001fd18   Section        0  nrf_fstorage_sd.o(i.nrf_fstorage_sdh_req_handler)
    i.nrf_fstorage_sdh_state_handler         0x0001fd30   Section        0  nrf_fstorage_sd.o(i.nrf_fstorage_sdh_state_handler)
    i.nrf_fstorage_sys_evt_handler           0x0001fd54   Section        0  nrf_fstorage_sd.o(i.nrf_fstorage_sys_evt_handler)
    i.nrf_fstorage_write                     0x0001fe54   Section        0  nrf_fstorage.o(i.nrf_fstorage_write)
    i.nrf_log_backend_add                    0x00020048   Section        0  nrf_log_frontend.o(i.nrf_log_backend_add)
    i.nrf_log_backend_rtt_flush              0x000200b0   Section        0  nrf_log_backend_rtt.o(i.nrf_log_backend_rtt_flush)
    nrf_log_backend_rtt_flush                0x000200b1   Thumb Code     2  nrf_log_backend_rtt.o(i.nrf_log_backend_rtt_flush)
    i.nrf_log_backend_rtt_init               0x000200b2   Section        0  nrf_log_backend_rtt.o(i.nrf_log_backend_rtt_init)
    i.nrf_log_backend_rtt_panic_set          0x000200b6   Section        0  nrf_log_backend_rtt.o(i.nrf_log_backend_rtt_panic_set)
    nrf_log_backend_rtt_panic_set            0x000200b7   Thumb Code     2  nrf_log_backend_rtt.o(i.nrf_log_backend_rtt_panic_set)
    i.nrf_log_backend_rtt_put                0x000200b8   Section        0  nrf_log_backend_rtt.o(i.nrf_log_backend_rtt_put)
    nrf_log_backend_rtt_put                  0x000200b9   Thumb Code    16  nrf_log_backend_rtt.o(i.nrf_log_backend_rtt_put)
    i.nrf_log_backend_serial_put             0x000200d0   Section        0  nrf_log_backend_serial.o(i.nrf_log_backend_serial_put)
    i.nrf_log_color_id_get                   0x00020194   Section        0  nrf_log_frontend.o(i.nrf_log_color_id_get)
    i.nrf_log_default_backends_init          0x000201c0   Section        0  nrf_log_default_backends.o(i.nrf_log_default_backends_init)
    i.nrf_log_frontend_dequeue               0x000201e0   Section        0  nrf_log_frontend.o(i.nrf_log_frontend_dequeue)
    i.nrf_log_frontend_std_0                 0x0002045c   Section        0  nrf_log_frontend.o(i.nrf_log_frontend_std_0)
    i.nrf_log_frontend_std_1                 0x00020464   Section        0  nrf_log_frontend.o(i.nrf_log_frontend_std_1)
    i.nrf_log_frontend_std_2                 0x00020472   Section        0  nrf_log_frontend.o(i.nrf_log_frontend_std_2)
    i.nrf_log_frontend_std_3                 0x00020486   Section        0  nrf_log_frontend.o(i.nrf_log_frontend_std_3)
    i.nrf_log_frontend_std_5                 0x000204a2   Section        0  nrf_log_frontend.o(i.nrf_log_frontend_std_5)
    i.nrf_log_hexdump_entry_process          0x000204c0   Section        0  nrf_log_str_formatter.o(i.nrf_log_hexdump_entry_process)
    i.nrf_log_init                           0x000205f0   Section        0  nrf_log_frontend.o(i.nrf_log_init)
    i.nrf_log_module_name_get                0x0002061c   Section        0  nrf_log_frontend.o(i.nrf_log_module_name_get)
    i.nrf_log_panic                          0x00020660   Section        0  nrf_log_frontend.o(i.nrf_log_panic)
    i.nrf_log_std_entry_process              0x0002068c   Section        0  nrf_log_str_formatter.o(i.nrf_log_std_entry_process)
    i.nrf_memobj_alloc                       0x000207f0   Section        0  nrf_memobj.o(i.nrf_memobj_alloc)
    i.nrf_memobj_get                         0x00020884   Section        0  nrf_memobj.o(i.nrf_memobj_get)
    i.nrf_memobj_pool_init                   0x0002088c   Section        0  nrf_memobj.o(i.nrf_memobj_pool_init)
    i.nrf_memobj_put                         0x00020890   Section        0  nrf_memobj.o(i.nrf_memobj_put)
    i.nrf_memobj_read                        0x000208e6   Section        0  nrf_memobj.o(i.nrf_memobj_read)
    i.nrf_memobj_write                       0x00020984   Section        0  nrf_memobj.o(i.nrf_memobj_write)
    i.nrf_pwr_mgmt_init                      0x00020a18   Section        0  nrf_pwr_mgmt.o(i.nrf_pwr_mgmt_init)
    i.nrf_pwr_mgmt_run                       0x00020a40   Section        0  nrf_pwr_mgmt.o(i.nrf_pwr_mgmt_run)
    i.nrf_qwr_error_handler                  0x00020a54   Section        0  main.o(i.nrf_qwr_error_handler)
    nrf_qwr_error_handler                    0x00020a55   Thumb Code    10  main.o(i.nrf_qwr_error_handler)
    i.nrf_ringbuf_init                       0x00020a70   Section        0  nrf_ringbuf.o(i.nrf_ringbuf_init)
    i.nrf_sdh_ble_default_cfg_set            0x00020a8c   Section        0  nrf_sdh_ble.o(i.nrf_sdh_ble_default_cfg_set)
    i.nrf_sdh_ble_enable                     0x00020bc0   Section        0  nrf_sdh_ble.o(i.nrf_sdh_ble_enable)
    i.nrf_sdh_ble_evts_poll                  0x00020d98   Section        0  nrf_sdh_ble.o(i.nrf_sdh_ble_evts_poll)
    nrf_sdh_ble_evts_poll                    0x00020d99   Thumb Code   130  nrf_sdh_ble.o(i.nrf_sdh_ble_evts_poll)
    i.nrf_sdh_disable_request                0x00020e80   Section        0  nrf_sdh.o(i.nrf_sdh_disable_request)
    i.nrf_sdh_enable_request                 0x00020fb8   Section        0  nrf_sdh.o(i.nrf_sdh_enable_request)
    i.nrf_sdh_is_enabled                     0x000211e0   Section        0  nrf_sdh.o(i.nrf_sdh_is_enabled)
    i.nrf_sdh_request_continue               0x000211ec   Section        0  nrf_sdh.o(i.nrf_sdh_request_continue)
    i.nrf_sdh_soc_evts_poll                  0x00021208   Section        0  nrf_sdh_soc.o(i.nrf_sdh_soc_evts_poll)
    nrf_sdh_soc_evts_poll                    0x00021209   Thumb Code    70  nrf_sdh_soc.o(i.nrf_sdh_soc_evts_poll)
    i.nrf_section_iter_init                  0x00021294   Section        0  nrf_section_iter.o(i.nrf_section_iter_init)
    i.nrf_section_iter_next                  0x000212b6   Section        0  nrf_section_iter.o(i.nrf_section_iter_next)
    i.nrf_sortlist_add                       0x000212ee   Section        0  nrf_sortlist.o(i.nrf_sortlist_add)
    i.nrf_sortlist_peek                      0x00021312   Section        0  nrf_sortlist.o(i.nrf_sortlist_peek)
    i.nrf_sortlist_pop                       0x00021318   Section        0  nrf_sortlist.o(i.nrf_sortlist_pop)
    i.nrf_sortlist_remove                    0x00021328   Section        0  nrf_sortlist.o(i.nrf_sortlist_remove)
    i.nrf_strerror_get                       0x00021350   Section        0  nrf_strerror.o(i.nrf_strerror_get)
    i.nrfx_clock_enable                      0x00021394   Section        0  nrfx_clock.o(i.nrfx_clock_enable)
    i.nrfx_clock_init                        0x000213c0   Section        0  nrfx_clock.o(i.nrfx_clock_init)
    i.nrfx_clock_lfclk_stop                  0x000213dc   Section        0  nrfx_clock.o(i.nrfx_clock_lfclk_stop)
    i.nrfx_saadc_channel_init                0x0002140c   Section        0  nrfx_saadc.o(i.nrfx_saadc_channel_init)
    i.nrfx_saadc_init                        0x000214ac   Section        0  nrfx_saadc.o(i.nrfx_saadc_init)
    i.nrfx_saadc_sample_convert              0x00021558   Section        0  nrfx_saadc.o(i.nrfx_saadc_sample_convert)
    i.nrfx_saadc_uninit                      0x0002168c   Section        0  nrfx_saadc.o(i.nrfx_saadc_uninit)
    i.nrfx_spi_init                          0x00021764   Section        0  nrfx_spi.o(i.nrfx_spi_init)
    i.nrfx_spi_uninit                        0x000218e4   Section        0  nrfx_spi.o(i.nrfx_spi_uninit)
    i.nrfx_spi_xfer                          0x00021948   Section        0  nrfx_spi.o(i.nrfx_spi_xfer)
    i.nrfx_wdt_channel_alloc                 0x00021ab0   Section        0  nrfx_wdt.o(i.nrfx_wdt_channel_alloc)
    i.nrfx_wdt_channel_feed                  0x00021af8   Section        0  nrfx_wdt.o(i.nrfx_wdt_channel_feed)
    i.nrfx_wdt_enable                        0x00021b10   Section        0  nrfx_wdt.o(i.nrfx_wdt_enable)
    i.nrfx_wdt_init                          0x00021b2c   Section        0  nrfx_wdt.o(i.nrfx_wdt_init)
    i.nus_data_handler                       0x00021b88   Section        0  main.o(i.nus_data_handler)
    nus_data_handler                         0x00021b89   Thumb Code  1160  main.o(i.nus_data_handler)
    i.on_adv_evt                             0x00022014   Section        0  main.o(i.on_adv_evt)
    on_adv_evt                               0x00022015   Thumb Code    92  main.o(i.on_adv_evt)
    i.on_conn_params_evt                     0x00022090   Section        0  main.o(i.on_conn_params_evt)
    on_conn_params_evt                       0x00022091   Thumb Code    32  main.o(i.on_conn_params_evt)
    i.queue_empty                            0x000220c4   Section        0  sys_queue.o(i.queue_empty)
    i.queue_full                             0x000220d6   Section        0  sys_queue.o(i.queue_full)
    i.queue_in                               0x000220e8   Section        0  sys_queue.o(i.queue_in)
    i.queue_init                             0x00022174   Section        0  sys_queue.o(i.queue_init)
    i.queue_out                              0x0002218c   Section        0  sys_queue.o(i.queue_out)
    i.queue_process                          0x000221f8   Section        0  nrf_fstorage_sd.o(i.queue_process)
    queue_process                            0x000221f9   Thumb Code   248  nrf_fstorage_sd.o(i.queue_process)
    i.read                                   0x00022300   Section        0  nrf_fstorage_sd.o(i.read)
    read                                     0x00022301   Thumb Code    14  nrf_fstorage_sd.o(i.read)
    i.rmap                                   0x0002230e   Section        0  nrf_fstorage_sd.o(i.rmap)
    rmap                                     0x0002230f   Thumb Code     4  nrf_fstorage_sd.o(i.rmap)
    i.rtc_irq                                0x00022314   Section        0  app_timer2.o(i.rtc_irq)
    rtc_irq                                  0x00022315   Thumb Code   460  app_timer2.o(i.rtc_irq)
    i.saadc_callback                         0x000224f4   Section        0  main.o(i.saadc_callback)
    i.save_sensor_data_to_ram_and_flash      0x000224f8   Section        0  main.o(i.save_sensor_data_to_ram_and_flash)
    i.sd_state_evt_handler                   0x0002259c   Section        0  nrf_drv_clock.o(i.sd_state_evt_handler)
    sd_state_evt_handler                     0x0002259d   Thumb Code   152  nrf_drv_clock.o(i.sd_state_evt_handler)
    i.serial_tx                              0x00022640   Section        0  nrf_log_backend_rtt.o(i.serial_tx)
    serial_tx                                0x00022641   Thumb Code    90  nrf_log_backend_rtt.o(i.serial_tx)
    i.set_odr_xyz_rep                        0x000226a4   Section        0  bmm150.o(i.set_odr_xyz_rep)
    set_odr_xyz_rep                          0x000226a5   Thumb Code   186  bmm150.o(i.set_odr_xyz_rep)
    i.set_security_req                       0x0002275e   Section        0  ble_srv_common.o(i.set_security_req)
    set_security_req                         0x0002275f   Thumb Code    50  ble_srv_common.o(i.set_security_req)
    i.soc_evt_handler                        0x00022790   Section        0  nrf_drv_clock.o(i.soc_evt_handler)
    soc_evt_handler                          0x00022791   Thumb Code    40  nrf_drv_clock.o(i.soc_evt_handler)
    i.spi_event_handler                      0x000227bc   Section        0  main.o(i.spi_event_handler)
    i.spi_evt_handler                        0x000227c8   Section        0  nrf_drv_spi.o(i.spi_evt_handler)
    spi_evt_handler                          0x000227c9   Thumb Code    52  nrf_drv_spi.o(i.spi_evt_handler)
    i.std_n                                  0x00022800   Section        0  nrf_log_frontend.o(i.std_n)
    std_n                                    0x00022801   Thumb Code   208  nrf_log_frontend.o(i.std_n)
    i.suspend_to_sleep_mode                  0x000228d8   Section        0  bmm150.o(i.suspend_to_sleep_mode)
    suspend_to_sleep_mode                    0x000228d9   Thumb Code   114  bmm150.o(i.suspend_to_sleep_mode)
    i.timer_expire                           0x0002294c   Section        0  app_timer2.o(i.timer_expire)
    timer_expire                             0x0002294d   Thumb Code   180  app_timer2.o(i.timer_expire)
    i.uninit                                 0x00022a0c   Section        0  nrf_fstorage_sd.o(i.uninit)
    uninit                                   0x00022a0d   Thumb Code    38  nrf_fstorage_sd.o(i.uninit)
    i.unpack_accel_data                      0x00022a3c   Section        0  bmi160.o(i.unpack_accel_data)
    unpack_accel_data                        0x00022a3d   Thumb Code    76  bmi160.o(i.unpack_accel_data)
    i.unpack_gyro_data                       0x00022a88   Section        0  bmi160.o(i.unpack_gyro_data)
    unpack_gyro_data                         0x00022a89   Thumb Code    76  bmi160.o(i.unpack_gyro_data)
    i.unsigned_print                         0x00022ad4   Section        0  nrf_fprintf_format.o(i.unsigned_print)
    unsigned_print                           0x00022ad5   Thumb Code   274  nrf_fprintf_format.o(i.unsigned_print)
    i.update_timeout_handler                 0x00022bec   Section        0  ble_conn_params.o(i.update_timeout_handler)
    update_timeout_handler                   0x00022bed   Thumb Code   114  ble_conn_params.o(i.update_timeout_handler)
    i.usr_get_volt                           0x00022c68   Section        0  main.o(i.usr_get_volt)
    i.uuid_list_encode                       0x00022cbc   Section        0  ble_advdata.o(i.uuid_list_encode)
    uuid_list_encode                         0x00022cbd   Thumb Code   356  ble_advdata.o(i.uuid_list_encode)
    i.wdt_event_handler                      0x00022e20   Section        0  main.o(i.wdt_event_handler)
    i.wmap                                   0x00022e22   Section        0  nrf_fstorage_sd.o(i.wmap)
    wmap                                     0x00022e23   Thumb Code     4  nrf_fstorage_sd.o(i.wmap)
    i.write                                  0x00022e28   Section        0  nrf_fstorage_sd.o(i.write)
    write                                    0x00022e29   Thumb Code    92  nrf_fstorage_sd.o(i.write)
    .constdata                               0x00022e90   Section      124  main.o(.constdata)
    app_timer                                0x00022e94   Data           4  main.o(.constdata)
    default_config                           0x00022e98   Data           4  main.o(.constdata)
    __FUNCTION__                             0x00022e9c   Data           5  main.o(.constdata)
    delay_machine_code                       0x00022eb0   Data           6  main.o(.constdata)
    m_spi                                    0x00022eb8   Data          16  main.o(.constdata)
    default_config                           0x00022ec8   Data          12  main.o(.constdata)
    .constdata                               0x00022f0c   Section        8  boards.o(.constdata)
    m_board_led_list                         0x00022f0c   Data           4  boards.o(.constdata)
    m_board_btn_list                         0x00022f10   Data           4  boards.o(.constdata)
    .constdata                               0x00022f14   Section       44  bsp.o(.constdata)
    m_bsp_leds_tmr                           0x00022f14   Data           4  bsp.o(.constdata)
    m_bsp_alert_tmr                          0x00022f18   Data           4  bsp.o(.constdata)
    m_bsp_button_tmr                         0x00022f1c   Data           4  bsp.o(.constdata)
    app_buttons                              0x00022f20   Data          32  bsp.o(.constdata)
    .constdata                               0x00022f40   Section       14  nrf_ble_gatt.o(.constdata)
    .constdata                               0x00022f50   Section       16  ble_nus.o(.constdata)
    .constdata                               0x00022f60   Section        4  nrfx_gpiote.o(.constdata)
    .constdata                               0x00022f64   Section       20  app_timer2.o(.constdata)
    m_req_fifo                               0x00022f64   Data           4  app_timer2.o(.constdata)
    m_app_timer_sortlist                     0x00022f6c   Data          12  app_timer2.o(.constdata)
    .constdata                               0x00022f80   Section        6  drv_rtc.o(.constdata)
    delay_machine_code                       0x00022f80   Data           6  drv_rtc.o(.constdata)
    .constdata                               0x00022f86   Section       16  nrf_fprintf_format.o(.constdata)
    _aV2C                                    0x00022f86   Data          16  nrf_fprintf_format.o(.constdata)
    .constdata                               0x00022f98   Section       24  nrf_pwr_mgmt.o(.constdata)
    pwr_mgmt_data_array                      0x00022f98   Data          24  nrf_pwr_mgmt.o(.constdata)
    .constdata                               0x00022fb0   Section       12  nrf_pwr_mgmt.o(.constdata)
    pwr_mgmt_data                            0x00022fb0   Data          12  nrf_pwr_mgmt.o(.constdata)
    .constdata                               0x00022fbc   Section      316  nrf_strerror.o(.constdata)
    m_unknown_str                            0x00022fbc   Data          19  nrf_strerror.o(.constdata)
    nrf_strerror_array                       0x00022fd0   Data         296  nrf_strerror.o(.constdata)
    .constdata                               0x000230f8   Section       94  nrf_fstorage.o(.constdata)
    __func__                                 0x000230f8   Data          18  nrf_fstorage.o(.constdata)
    __func__                                 0x0002310a   Data          20  nrf_fstorage.o(.constdata)
    __func__                                 0x0002311e   Data          18  nrf_fstorage.o(.constdata)
    __func__                                 0x00023130   Data          19  nrf_fstorage.o(.constdata)
    __func__                                 0x00023143   Data          19  nrf_fstorage.o(.constdata)
    .constdata                               0x00023158   Section       16  nrf_fstorage_sd.o(.constdata)
    m_fifo                                   0x00023158   Data           4  nrf_fstorage_sd.o(.constdata)
    m_flash_info                             0x0002315c   Data          12  nrf_fstorage_sd.o(.constdata)
    .constdata                               0x00023168   Section       32  nrf_fstorage_sd.o(.constdata)
    .constdata                               0x00023188   Section       12  nrf_log_backend_rtt.o(.constdata)
    .constdata                               0x000231a0   Section        6  nrf_log_backend_rtt.o(.constdata)
    delay_machine_code                       0x000231a0   Data           6  nrf_log_backend_rtt.o(.constdata)
    .constdata                               0x000231a8   Section       12  nrf_log_frontend.o(.constdata)
    m_log_push_ringbuf                       0x000231a8   Data          12  nrf_log_frontend.o(.constdata)
    .constdata                               0x000231b4   Section       16  nrf_sdh.o(.constdata)
    sdh_req_observers_array                  0x000231b4   Data          16  nrf_sdh.o(.constdata)
    .constdata                               0x000231c4   Section       40  nrf_sdh.o(.constdata)
    sdh_req_observers                        0x000231c8   Data          12  nrf_sdh.o(.constdata)
    sdh_state_observers                      0x000231d4   Data          12  nrf_sdh.o(.constdata)
    sdh_stack_observers                      0x000231e0   Data          12  nrf_sdh.o(.constdata)
    .constdata                               0x000231ec   Section       16  nrf_sdh.o(.constdata)
    sdh_state_observers_array                0x000231ec   Data          16  nrf_sdh.o(.constdata)
    .constdata                               0x000231fc   Section       16  nrf_sdh.o(.constdata)
    sdh_stack_observers_array                0x000231fc   Data          16  nrf_sdh.o(.constdata)
    .constdata                               0x0002320c   Section       32  nrf_sdh_ble.o(.constdata)
    sdh_ble_observers_array                  0x0002320c   Data          32  nrf_sdh_ble.o(.constdata)
    .constdata                               0x0002322c   Section       16  nrf_sdh_ble.o(.constdata)
    sdh_ble_observers                        0x00023230   Data          12  nrf_sdh_ble.o(.constdata)
    .constdata                               0x0002323c   Section       16  nrf_sdh_soc.o(.constdata)
    sdh_soc_observers_array                  0x0002323c   Data          16  nrf_sdh_soc.o(.constdata)
    .constdata                               0x0002324c   Section       12  nrf_sdh_soc.o(.constdata)
    sdh_soc_observers                        0x0002324c   Data          12  nrf_sdh_soc.o(.constdata)
    .constdata                               0x00023258   Section      129  ctype_o.o(.constdata)
    .constdata                               0x000232dc   Section        4  ctype_o.o(.constdata)
    table                                    0x000232dc   Data           4  ctype_o.o(.constdata)
    .conststring                             0x000232e0   Section       65  nrf_flash.o(.conststring)
    .conststring                             0x00023324   Section       69  nrf_ble_gatt.o(.conststring)
    .conststring                             0x0002336c   Section     1003  nrf_strerror.o(.conststring)
    .conststring                             0x00023758   Section       79  nrf_fstorage.o(.conststring)
    .conststring                             0x000237a8   Section      102  nrf_log_str_formatter.o(.conststring)
    .conststring                             0x00023810   Section      463  nrf_sdh_ble.o(.conststring)
    .conststrlit                             0x000239e0   Section       13  nrf_ble_gatt.o(.conststrlit)
    .conststrlit                             0x000239f0   Section        8  ble_nus.o(.conststrlit)
    .conststrlit                             0x000239f8   Section        6  nrf_drv_clock.o(.conststrlit)
    .conststrlit                             0x00023a00   Section        6  nrfx_clock.o(.conststrlit)
    .conststrlit                             0x00023a08   Section        7  nrfx_gpiote.o(.conststrlit)
    .conststrlit                             0x00023a10   Section        6  nrfx_saadc.o(.conststrlit)
    .conststrlit                             0x00023a18   Section        4  nrfx_spi.o(.conststrlit)
    .conststrlit                             0x00023a1c   Section        4  nrfx_wdt.o(.conststrlit)
    .conststrlit                             0x00023a20   Section        4  nrfx_rtc.o(.conststrlit)
    .conststrlit                             0x00023a24   Section       11  app_button.o(.conststrlit)
    .conststrlit                             0x00023a30   Section       10  app_timer2.o(.conststrlit)
    .conststrlit                             0x00023a3c   Section        9  nrf_pwr_mgmt.o(.conststrlit)
    .conststrlit                             0x00023a48   Section        9  nrf_sortlist.o(.conststrlit)
    .conststrlit                             0x00023a54   Section       13  nrf_fstorage.o(.conststrlit)
    .conststrlit                             0x00023a64   Section       16  nrf_log_default_backends.o(.conststrlit)
    .conststrlit                             0x00023a74   Section        4  nrf_log_frontend.o(.conststrlit)
    .conststrlit                             0x00023a78   Section        8  nrf_sdh.o(.conststrlit)
    .conststrlit                             0x00023a80   Section       12  nrf_sdh_ble.o(.conststrlit)
    .conststrlit                             0x00023a8c   Section       12  nrf_sdh_soc.o(.conststrlit)
    log_backends                             0x00023ab8   Section       16  nrf_log_default_backends.o(log_backends)
    __tagsym$$used                           0x00023ab8   Number         0  nrf_log_default_backends.o(log_backends)
    rtt_log_backend                          0x00023ab8   Data          16  nrf_log_default_backends.o(log_backends)
    log_const_data                           0x00023ac8   Section        8  nrf_ble_gatt.o(log_const_data)
    __tagsym$$used                           0x00023ac8   Number         0  nrf_ble_gatt.o(log_const_data)
    log_const_data                           0x00023ad0   Section        8  ble_nus.o(log_const_data)
    __tagsym$$used                           0x00023ad0   Number         0  ble_nus.o(log_const_data)
    log_const_data                           0x00023ad8   Section        8  nrf_drv_clock.o(log_const_data)
    __tagsym$$used                           0x00023ad8   Number         0  nrf_drv_clock.o(log_const_data)
    log_const_data                           0x00023ae0   Section        8  nrfx_clock.o(log_const_data)
    __tagsym$$used                           0x00023ae0   Number         0  nrfx_clock.o(log_const_data)
    log_const_data                           0x00023ae8   Section        8  nrfx_gpiote.o(log_const_data)
    __tagsym$$used                           0x00023ae8   Number         0  nrfx_gpiote.o(log_const_data)
    log_const_data                           0x00023af0   Section        8  nrfx_saadc.o(log_const_data)
    __tagsym$$used                           0x00023af0   Number         0  nrfx_saadc.o(log_const_data)
    log_const_data                           0x00023af8   Section        8  nrfx_spi.o(log_const_data)
    __tagsym$$used                           0x00023af8   Number         0  nrfx_spi.o(log_const_data)
    log_const_data                           0x00023b00   Section        8  nrfx_wdt.o(log_const_data)
    __tagsym$$used                           0x00023b00   Number         0  nrfx_wdt.o(log_const_data)
    log_const_data                           0x00023b08   Section        8  nrfx_rtc.o(log_const_data)
    __tagsym$$used                           0x00023b08   Number         0  nrfx_rtc.o(log_const_data)
    log_const_data                           0x00023b10   Section        8  app_button.o(log_const_data)
    __tagsym$$used                           0x00023b10   Number         0  app_button.o(log_const_data)
    log_const_data                           0x00023b18   Section        8  app_timer2.o(log_const_data)
    __tagsym$$used                           0x00023b18   Number         0  app_timer2.o(log_const_data)
    log_const_data                           0x00023b20   Section        8  nrf_pwr_mgmt.o(log_const_data)
    __tagsym$$used                           0x00023b20   Number         0  nrf_pwr_mgmt.o(log_const_data)
    log_const_data                           0x00023b28   Section        8  nrf_sortlist.o(log_const_data)
    __tagsym$$used                           0x00023b28   Number         0  nrf_sortlist.o(log_const_data)
    log_const_data                           0x00023b30   Section        8  nrf_fstorage.o(log_const_data)
    __tagsym$$used                           0x00023b30   Number         0  nrf_fstorage.o(log_const_data)
    log_const_data                           0x00023b38   Section        8  nrf_log_frontend.o(log_const_data)
    __tagsym$$used                           0x00023b38   Number         0  nrf_log_frontend.o(log_const_data)
    log_const_data                           0x00023b40   Section        8  nrf_sdh.o(log_const_data)
    __tagsym$$used                           0x00023b40   Number         0  nrf_sdh.o(log_const_data)
    log_const_data                           0x00023b48   Section        8  nrf_sdh_ble.o(log_const_data)
    __tagsym$$used                           0x00023b48   Number         0  nrf_sdh_ble.o(log_const_data)
    log_const_data                           0x00023b50   Section        8  nrf_sdh_soc.o(log_const_data)
    __tagsym$$used                           0x00023b50   Number         0  nrf_sdh_soc.o(log_const_data)
    nrf_balloc                               0x00023b58   Section       20  nrf_log_frontend.o(nrf_balloc)
    __tagsym$$used                           0x00023b58   Number         0  nrf_log_frontend.o(nrf_balloc)
    sdh_ble_observers0                       0x00023b6c   Section        8  ble_conn_state.o(sdh_ble_observers0)
    __tagsym$$used                           0x00023b6c   Number         0  ble_conn_state.o(sdh_ble_observers0)
    m_ble_evt_observer                       0x00023b6c   Data           8  ble_conn_state.o(sdh_ble_observers0)
    sdh_ble_observers1                       0x00023b74   Section       16  main.o(sdh_ble_observers1)
    __tagsym$$used                           0x00023b74   Number         0  main.o(sdh_ble_observers1)
    m_gatt_obs                               0x00023b74   Data           8  main.o(sdh_ble_observers1)
    __tagsym$$used                           0x00023b7c   Number         0  main.o(sdh_ble_observers1)
    m_advertising_ble_obs                    0x00023b7c   Data           8  main.o(sdh_ble_observers1)
    sdh_ble_observers1                       0x00023b84   Section        8  bsp_btn_ble.o(sdh_ble_observers1)
    __tagsym$$used                           0x00023b84   Number         0  bsp_btn_ble.o(sdh_ble_observers1)
    m_ble_observer                           0x00023b84   Data           8  bsp_btn_ble.o(sdh_ble_observers1)
    sdh_ble_observers1                       0x00023b8c   Section        8  ble_conn_params.o(sdh_ble_observers1)
    __tagsym$$used                           0x00023b8c   Number         0  ble_conn_params.o(sdh_ble_observers1)
    m_ble_observer                           0x00023b8c   Data           8  ble_conn_params.o(sdh_ble_observers1)
    sdh_ble_observers2                       0x00023b94   Section       16  main.o(sdh_ble_observers2)
    __tagsym$$used                           0x00023b94   Number         0  main.o(sdh_ble_observers2)
    m_nus_obs                                0x00023b94   Data           8  main.o(sdh_ble_observers2)
    __tagsym$$used                           0x00023b9c   Number         0  main.o(sdh_ble_observers2)
    m_qwr_obs                                0x00023b9c   Data           8  main.o(sdh_ble_observers2)
    sdh_ble_observers3                       0x00023ba4   Section        8  main.o(sdh_ble_observers3)
    __tagsym$$used                           0x00023ba4   Number         0  main.o(sdh_ble_observers3)
    m_ble_observer                           0x00023ba4   Data           8  main.o(sdh_ble_observers3)
    sdh_req_observers0                       0x00023bac   Section        8  nrf_fstorage_sd.o(sdh_req_observers0)
    __tagsym$$used                           0x00023bac   Number         0  nrf_fstorage_sd.o(sdh_req_observers0)
    sdh_soc_observers0                       0x00023bb4   Section        8  nrf_drv_clock.o(sdh_soc_observers0)
    __tagsym$$used                           0x00023bb4   Number         0  nrf_drv_clock.o(sdh_soc_observers0)
    m_soc_evt_observer                       0x00023bb4   Data           8  nrf_drv_clock.o(sdh_soc_observers0)
    sdh_soc_observers0                       0x00023bbc   Section        8  nrf_fstorage_sd.o(sdh_soc_observers0)
    __tagsym$$used                           0x00023bbc   Number         0  nrf_fstorage_sd.o(sdh_soc_observers0)
    m_sys_obs                                0x00023bbc   Data           8  nrf_fstorage_sd.o(sdh_soc_observers0)
    sdh_stack_observers0                     0x00023bc4   Section        8  nrf_sdh_ble.o(sdh_stack_observers0)
    __tagsym$$used                           0x00023bc4   Number         0  nrf_sdh_ble.o(sdh_stack_observers0)
    m_nrf_sdh_ble_evts_poll                  0x00023bc4   Data           8  nrf_sdh_ble.o(sdh_stack_observers0)
    sdh_stack_observers0                     0x00023bcc   Section        8  nrf_sdh_soc.o(sdh_stack_observers0)
    __tagsym$$used                           0x00023bcc   Number         0  nrf_sdh_soc.o(sdh_stack_observers0)
    m_nrf_sdh_soc_evts_poll                  0x00023bcc   Data           8  nrf_sdh_soc.o(sdh_stack_observers0)
    sdh_state_observers0                     0x00023bd4   Section        8  nrf_drv_clock.o(sdh_state_observers0)
    __tagsym$$used                           0x00023bd4   Number         0  nrf_drv_clock.o(sdh_state_observers0)
    m_sd_state_observer                      0x00023bd4   Data           8  nrf_drv_clock.o(sdh_state_observers0)
    sdh_state_observers0                     0x00023bdc   Section        8  nrf_fstorage_sd.o(sdh_state_observers0)
    __tagsym$$used                           0x00023bdc   Number         0  nrf_fstorage_sd.o(sdh_state_observers0)
    m_state_obs                              0x00023bdc   Data           8  nrf_fstorage_sd.o(sdh_state_observers0)
    .data                                    0x200022c8   Section      140  main.o(.data)
    g_tx_sequence_id                         0x200022c8   Data           1  main.o(.data)
    g_acquire_enable                         0x200022c9   Data           1  main.o(.data)
    g_active_upload_flag                     0x200022ca   Data           1  main.o(.data)
    g_active_upload_idx                      0x200022cb   Data           1  main.o(.data)
    g_ble_connect_flag                       0x200022cc   Data           1  main.o(.data)
    g_ble_connect_changed                    0x200022cd   Data           1  main.o(.data)
    g_ble_adv_flag                           0x200022ce   Data           1  main.o(.data)
    g_sleep_needed                           0x200022cf   Data           1  main.o(.data)
    peri_poweroff_flag                       0x200022d0   Data           1  main.o(.data)
    packet_sequence_id                       0x200022d1   Data           1  main.o(.data)
    spi_init_flag                            0x200022d2   Data           1  main.o(.data)
    g_s_erase_flag                           0x200022d3   Data           1  main.o(.data)
    g_s_flash_write_sensor_len               0x200022d4   Data           1  main.o(.data)
    g_s_get_sensor_data_and_save             0x200022d9   Data           1  main.o(.data)
    g_s_send_sensor_data_flag                0x200022da   Data           1  main.o(.data)
    spi_xfer_done                            0x200022db   Data           1  main.o(.data)
    g_bat_volt                               0x200022dc   Data           2  main.o(.data)
    m_conn_handle                            0x200022de   Data           2  main.o(.data)
    m_ble_nus_max_data_len                   0x200022e0   Data           2  main.o(.data)
    m_adv_uuids                              0x200022e4   Data           4  main.o(.data)
    send_cnt                                 0x200022e8   Data           4  main.o(.data)
    g_s_flash_write_offset                   0x200022ec   Data           4  main.o(.data)
    g_s_flash_read_offset                    0x200022f0   Data           4  main.o(.data)
    m_nus                                    0x200022fc   Data          28  main.o(.data)
    .data                                    0x20002358   Section       32  main.o(.data)
    app_timer_data                           0x20002358   Data          32  main.o(.data)
    .data                                    0x20002378   Section        8  main.o(.data)
    m_nus_link_ctx_storage                   0x20002378   Data           8  main.o(.data)
    .data                                    0x20002380   Section        4  main.o(.data)
    m_nus_link_ctx_storage_ctx_data_pool     0x20002380   Data           4  main.o(.data)
    .data                                    0x20002384   Section       16  bsp.o(.data)
    m_stable_state                           0x20002384   Data           1  bsp.o(.data)
    m_leds_clear                             0x20002385   Data           1  bsp.o(.data)
    m_alert_on                               0x20002386   Data           1  bsp.o(.data)
    current_long_push_pin_no                 0x20002387   Data           1  bsp.o(.data)
    m_indication_type                        0x20002388   Data           4  bsp.o(.data)
    m_registered_callback                    0x2000238c   Data           4  bsp.o(.data)
    release_event_at_push                    0x20002390   Data           4  bsp.o(.data)
    .data                                    0x20002398   Section       32  bsp.o(.data)
    m_bsp_leds_tmr_data                      0x20002398   Data          32  bsp.o(.data)
    .data                                    0x200023b8   Section       32  bsp.o(.data)
    m_bsp_alert_tmr_data                     0x200023b8   Data          32  bsp.o(.data)
    .data                                    0x200023d8   Section       32  bsp.o(.data)
    m_bsp_button_tmr_data                    0x200023d8   Data          32  bsp.o(.data)
    .data                                    0x200023f8   Section        8  bsp_btn_ble.o(.data)
    m_error_handler                          0x200023f8   Data           4  bsp_btn_ble.o(.data)
    m_num_connections                        0x200023fc   Data           4  bsp_btn_ble.o(.data)
    .data                                    0x20002400   Section        8  ble_conn_params.o(.data)
    m_preferred_conn_params                  0x20002400   Data           8  ble_conn_params.o(.data)
    .data                                    0x20002408   Section        8  nrfx_clock.o(.data)
    m_clock_cb                               0x20002408   Data           8  nrfx_clock.o(.data)
    .data                                    0x20002410   Section        8  nrf_drv_spi.o(.data)
    m_handlers                               0x20002410   Data           4  nrf_drv_spi.o(.data)
    m_contexts                               0x20002414   Data           4  nrf_drv_spi.o(.data)
    .data                                    0x20002418   Section        8  nrfx_wdt.o(.data)
    m_state                                  0x20002418   Data           1  nrfx_wdt.o(.data)
    m_alloc_index                            0x20002419   Data           1  nrfx_wdt.o(.data)
    m_wdt_event_handler                      0x2000241c   Data           4  nrfx_wdt.o(.data)
    .data                                    0x20002420   Section        8  nrfx_rtc.o(.data)
    m_cb                                     0x20002420   Data           3  nrfx_rtc.o(.data)
    m_handlers                               0x20002424   Data           4  nrfx_rtc.o(.data)
    .data                                    0x20002428   Section       32  app_timer2.o(.data)
    m_global_active                          0x20002428   Data           1  app_timer2.o(.data)
    mp_active_timer                          0x2000242c   Data           4  app_timer2.o(.data)
    m_rtc_inst                               0x20002430   Data           8  app_timer2.o(.data)
    m_base_counter                           0x20002438   Data           8  app_timer2.o(.data)
    m_stamp64                                0x20002440   Data           8  app_timer2.o(.data)
    .data                                    0x20002448   Section        4  app_timer2.o(.data)
    m_app_timer_sortlist_sortlist_cb         0x20002448   Data           4  app_timer2.o(.data)
    .data                                    0x2000244c   Section       12  drv_rtc.o(.data)
    m_handlers                               0x2000244c   Data           4  drv_rtc.o(.data)
    m_cb                                     0x20002450   Data           8  drv_rtc.o(.data)
    .data                                    0x20002458   Section        8  nrf_pwr_mgmt.o(.data)
    m_pwr_mgmt_evt                           0x20002458   Data           1  nrf_pwr_mgmt.o(.data)
    m_shutdown_started                       0x20002459   Data           1  nrf_pwr_mgmt.o(.data)
    m_sysoff_mtx                             0x2000245c   Data           4  nrf_pwr_mgmt.o(.data)
    .data                                    0x20002460   Section        8  nrf_fstorage_sd.o(.data)
    m_p_cur_op                               0x20002460   Data           4  nrf_fstorage_sd.o(.data)
    m_iget_ctx                               0x20002464   Data           4  nrf_fstorage_sd.o(.data)
    .data                                    0x20002468   Section        1  nrf_log_backend_rtt.o(.data)
    m_host_present                           0x20002468   Data           1  nrf_log_backend_rtt.o(.data)
    .data                                    0x2000246c   Section        8  nrf_log_default_backends.o(.data)
    log_backend_cb_rtt_log_backend           0x2000246c   Data           8  nrf_log_default_backends.o(.data)
    .data                                    0x20002474   Section        4  nrf_log_frontend.o(.data)
    m_buffer_mask                            0x20002474   Data           4  nrf_log_frontend.o(.data)
    .data                                    0x20002478   Section        8  nrf_log_frontend.o(.data)
    log_mempool_nrf_balloc_pool_stack        0x20002478   Data           8  nrf_log_frontend.o(.data)
    .data                                    0x20002480   Section        8  nrf_log_frontend.o(.data)
    log_mempool_nrf_balloc_cb                0x20002480   Data           8  nrf_log_frontend.o(.data)
    .data                                    0x20002488   Section       64  nrf_log_str_formatter.o(.data)
    m_freq                                   0x20002488   Data           4  nrf_log_str_formatter.o(.data)
    m_timestamp_div                          0x2000248c   Data           4  nrf_log_str_formatter.o(.data)
    severity_names                           0x20002490   Data          20  nrf_log_str_formatter.o(.data)
    m_colors                                 0x200024a4   Data          36  nrf_log_str_formatter.o(.data)
    .data                                    0x200024c8   Section        3  nrf_sdh.o(.data)
    m_nrf_sdh_enabled                        0x200024c8   Data           1  nrf_sdh.o(.data)
    m_nrf_sdh_suspended                      0x200024c9   Data           1  nrf_sdh.o(.data)
    m_nrf_sdh_continue                       0x200024ca   Data           1  nrf_sdh.o(.data)
    .data                                    0x200024cb   Section        1  nrf_sdh_ble.o(.data)
    m_stack_is_enabled                       0x200024cb   Data           1  nrf_sdh_ble.o(.data)
    .data                                    0x200024cc   Section        4  system_nrf52805.o(.data)
    __tagsym$$used                           0x200024cc   Number         0  system_nrf52805.o(.data)
    fs_data                                  0x200024d0   Section       20  nrf_flash.o(fs_data)
    __tagsym$$used                           0x200024d0   Number         0  nrf_flash.o(fs_data)
    .bss                                     0x200024e4   Section     8564  main.o(.bss)
    g_sensor_data_buf                        0x200024e4   Data         144  main.o(.bss)
    g_s_save_sensor_data_queue               0x20002574   Data        5932  main.o(.bss)
    g_s_sensor_data_buf                      0x20003ca0   Data         144  main.o(.bss)
    g_s_send_sensor_buf                      0x20003d30   Data         144  main.o(.bss)
    m_gatt                                   0x20003dc0   Data          16  main.o(.bss)
    m_qwr                                    0x20003dd0   Data          12  main.o(.bss)
    m_advertising                            0x20003ddc   Data         248  main.o(.bss)
    spi_tx_buf                               0x20003ed4   Data         256  main.o(.bss)
    spi_rx_buf                               0x20003fd4   Data         256  main.o(.bss)
    .bss                                     0x20004658   Section       12  bsp.o(.bss)
    m_events_list                            0x20004658   Data          12  bsp.o(.bss)
    .bss                                     0x20004668   Section       80  ble_conn_params.o(.bss)
    m_timer_data                             0x20004668   Data          32  ble_conn_params.o(.bss)
    m_conn_params_instances                  0x20004688   Data          20  ble_conn_params.o(.bss)
    m_conn_params_config                     0x2000469c   Data          28  ble_conn_params.o(.bss)
    .bss                                     0x200046b8   Section      124  ble_conn_state.o(.bss)
    m_bcs                                    0x200046b8   Data         124  ble_conn_state.o(.bss)
    .bss                                     0x20004734   Section       20  nrf_drv_clock.o(.bss)
    m_clock_cb                               0x20004734   Data          20  nrf_drv_clock.o(.bss)
    .bss                                     0x20004748   Section       92  nrfx_gpiote.o(.bss)
    m_cb                                     0x20004748   Data          92  nrfx_gpiote.o(.bss)
    .bss                                     0x200047a4   Section       48  nrfx_saadc.o(.bss)
    m_cb                                     0x200047a4   Data          48  nrfx_saadc.o(.bss)
    .bss                                     0x200047d4   Section       44  nrfx_spi.o(.bss)
    m_cb                                     0x200047d4   Data          44  nrfx_spi.o(.bss)
    .bss                                     0x20004800   Section       32  app_error.o(.bss)
    m_error_data                             0x20004800   Data          32  app_error.o(.bss)
    .bss                                     0x20004820   Section       16  app_timer2.o(.bss)
    m_req_fifo_inst                          0x20004820   Data          16  app_timer2.o(.bss)
    .bss                                     0x20004830   Section       88  app_timer2.o(.bss)
    m_req_fifo_data                          0x20004830   Data          88  app_timer2.o(.bss)
    .bss                                     0x20004888   Section       12  app_util_platform.o(.bss)
    .bss                                     0x20004894   Section       12  nrf_pwr_mgmt.o(.bss)
    m_handlers_iter                          0x20004894   Data          12  nrf_pwr_mgmt.o(.bss)
    .bss                                     0x200048a0   Section       16  nrf_fstorage_sd.o(.bss)
    m_fifo_inst                              0x200048a0   Data          16  nrf_fstorage_sd.o(.bss)
    .bss                                     0x200048b0   Section      160  nrf_fstorage_sd.o(.bss)
    m_fifo_data                              0x200048b0   Data         140  nrf_fstorage_sd.o(.bss)
    m_flags                                  0x2000493c   Data          20  nrf_fstorage_sd.o(.bss)
    .bss                                     0x20004950   Section       64  nrf_log_backend_rtt.o(.bss)
    m_string_buff                            0x20004950   Data          64  nrf_log_backend_rtt.o(.bss)
    .bss                                     0x20004990   Section      192  nrf_log_frontend.o(.bss)
    log_mempool_nrf_balloc_pool_mem          0x20004990   Data         192  nrf_log_frontend.o(.bss)
    .bss                                     0x20004a50   Section      128  nrf_log_frontend.o(.bss)
    m_log_push_ringbuf_buf                   0x20004a50   Data         128  nrf_log_frontend.o(.bss)
    .bss                                     0x20004ad0   Section       24  nrf_log_frontend.o(.bss)
    m_log_push_ringbuf_cb                    0x20004ad0   Data          24  nrf_log_frontend.o(.bss)
    .bss                                     0x20004ae8   Section     1056  nrf_log_frontend.o(.bss)
    m_log_data                               0x20004ae8   Data        1056  nrf_log_frontend.o(.bss)
    .bss                                     0x20004f08   Section      648  segger_rtt.o(.bss)
    _acUpBuffer                              0x20004f80   Data         512  segger_rtt.o(.bss)
    _acDownBuffer                            0x20005180   Data          16  segger_rtt.o(.bss)
    STACK                                    0x20005190   Section     2048  arm_startup_nrf52805.o(STACK)

    Global Symbols

    Symbol Name                              Value     Ov Type        Size  Object(Section)

    BuildAttributes$$THM_ISAv4$E$P$D$K$B$S$7EM$PE$A:L22UL41UL21$X:L11$S22US41US21$IEEE1$IW$USESV6$~STKCKD$USESV7$~SHL$OTIME$ROPI$EBA8$MICROLIB$REQ8$EABIv2 0x00000000   Number         0  anon$$obj.o ABSOLUTE
    __ARM_use_no_argv                        0x00000000   Number         0  main.o ABSOLUTE
    __use_no_errno                           0x00000000   Number         0  useno.o ABSOLUTE
    __use_no_exception_handling              0x00000000   Number         0  useno.o ABSOLUTE
    __use_no_fp                              0x00000000   Number         0  useno.o ABSOLUTE
    __use_no_heap                            0x00000000   Number         0  useno.o ABSOLUTE
    __use_no_heap_region                     0x00000000   Number         0  useno.o ABSOLUTE
    __use_no_semihosting                     0x00000000   Number         0  useno.o ABSOLUTE
    __use_no_semihosting_swi                 0x00000000   Number         0  useno.o ABSOLUTE
    __use_no_signal_handling                 0x00000000   Number         0  useno.o ABSOLUTE
    __arm_fini_                               - Undefined Weak Reference
    __cpp_initialize__aeabi_                  - Undefined Weak Reference
    __cxa_finalize                            - Undefined Weak Reference
    _clock_init                               - Undefined Weak Reference
    _microlib_exit                            - Undefined Weak Reference
    log_dynamic_data$$Base                    - Undefined Reference
    pwr_mgmt_data0$$Base                      - Undefined Reference
    pwr_mgmt_data0$$Limit                     - Undefined Reference
    pwr_mgmt_data1$$Base                      - Undefined Reference
    pwr_mgmt_data1$$Limit                     - Undefined Reference
    pwr_mgmt_data2$$Base                      - Undefined Reference
    pwr_mgmt_data2$$Limit                     - Undefined Reference
    sdh_req_observers1$$Base                  - Undefined Reference
    sdh_req_observers1$$Limit                 - Undefined Reference
    sdh_soc_observers1$$Base                  - Undefined Reference
    sdh_soc_observers1$$Limit                 - Undefined Reference
    sdh_stack_observers1$$Base                - Undefined Reference
    sdh_stack_observers1$$Limit               - Undefined Reference
    sdh_state_observers1$$Base                - Undefined Reference
    sdh_state_observers1$$Limit               - Undefined Reference
    __Vectors_Size                           0x00000200   Number         0  arm_startup_nrf52805.o ABSOLUTE
    __Vectors                                0x00019000   Data           4  arm_startup_nrf52805.o(RESET)
    __Vectors_End                            0x00019200   Data           0  arm_startup_nrf52805.o(RESET)
    __main                                   0x00019201   Thumb Code     0  entry.o(.ARM.Collect$$$$00000000)
    _main_stk                                0x00019201   Thumb Code     0  entry2.o(.ARM.Collect$$$$00000001)
    _main_scatterload                        0x00019205   Thumb Code     0  entry5.o(.ARM.Collect$$$$00000004)
    __main_after_scatterload                 0x00019209   Thumb Code     0  entry5.o(.ARM.Collect$$$$00000004)
    _main_clock                              0x00019209   Thumb Code     0  entry7b.o(.ARM.Collect$$$$00000008)
    _main_cpp_init                           0x00019209   Thumb Code     0  entry8b.o(.ARM.Collect$$$$0000000A)
    _main_init                               0x00019209   Thumb Code     0  entry9a.o(.ARM.Collect$$$$0000000B)
    __rt_lib_shutdown_fini                   0x00019211   Thumb Code     0  entry12b.o(.ARM.Collect$$$$0000000E)
    __rt_final_cpp                           0x00019215   Thumb Code     0  entry10a.o(.ARM.Collect$$$$0000000F)
    __rt_final_exit                          0x00019215   Thumb Code     0  entry11a.o(.ARM.Collect$$$$00000011)
    app_error_handler                        0x00019219   Thumb Code    26  app_error_handler_keil.o(.emb_text)
    __asm___12_nrf_atfifo_c_51f461e1__nrf_atfifo_wspace_req 0x00019235   Thumb Code    56  nrf_atfifo.o(.emb_text)
    __asm___12_nrf_atfifo_c_51f461e1__nrf_atfifo_wspace_close 0x0001926d   Thumb Code    18  nrf_atfifo.o(.emb_text)
    __asm___12_nrf_atfifo_c_51f461e1__nrf_atfifo_rspace_req 0x0001927f   Thumb Code    58  nrf_atfifo.o(.emb_text)
    __asm___12_nrf_atfifo_c_51f461e1__nrf_atfifo_rspace_close 0x000192b9   Thumb Code    18  nrf_atfifo.o(.emb_text)
    __asm___12_nrf_atfifo_c_51f461e1__nrf_atfifo_space_clear 0x000192cb   Thumb Code    50  nrf_atfifo.o(.emb_text)
    __asm___12_nrf_atomic_c_85ca2469__nrf_atomic_internal_mov 0x000192fd   Thumb Code    24  nrf_atomic.o(.emb_text)
    __asm___12_nrf_atomic_c_85ca2469__nrf_atomic_internal_orr 0x00019315   Thumb Code    26  nrf_atomic.o(.emb_text)
    __asm___12_nrf_atomic_c_85ca2469__nrf_atomic_internal_and 0x0001932f   Thumb Code    26  nrf_atomic.o(.emb_text)
    __asm___12_nrf_atomic_c_85ca2469__nrf_atomic_internal_eor 0x00019349   Thumb Code    26  nrf_atomic.o(.emb_text)
    __asm___12_nrf_atomic_c_85ca2469__nrf_atomic_internal_add 0x00019363   Thumb Code    26  nrf_atomic.o(.emb_text)
    __asm___12_nrf_atomic_c_85ca2469__nrf_atomic_internal_sub 0x0001937d   Thumb Code    26  nrf_atomic.o(.emb_text)
    __asm___12_nrf_atomic_c_85ca2469__nrf_atomic_internal_cmp_exch 0x00019397   Thumb Code    42  nrf_atomic.o(.emb_text)
    __asm___12_nrf_atomic_c_85ca2469__nrf_atomic_internal_sub_hs 0x000193c1   Thumb Code    30  nrf_atomic.o(.emb_text)
    Reset_Handler                            0x000193e1   Thumb Code     8  arm_startup_nrf52805.o(.text)
    NMI_Handler                              0x000193e9   Thumb Code     2  arm_startup_nrf52805.o(.text)
    HardFault_Handler                        0x000193eb   Thumb Code     2  arm_startup_nrf52805.o(.text)
    MemoryManagement_Handler                 0x000193ed   Thumb Code     2  arm_startup_nrf52805.o(.text)
    BusFault_Handler                         0x000193ef   Thumb Code     2  arm_startup_nrf52805.o(.text)
    UsageFault_Handler                       0x000193f1   Thumb Code     2  arm_startup_nrf52805.o(.text)
    SVC_Handler                              0x000193f3   Thumb Code     2  arm_startup_nrf52805.o(.text)
    DebugMon_Handler                         0x000193f5   Thumb Code     2  arm_startup_nrf52805.o(.text)
    PendSV_Handler                           0x000193f7   Thumb Code     2  arm_startup_nrf52805.o(.text)
    SysTick_Handler                          0x000193f9   Thumb Code     2  arm_startup_nrf52805.o(.text)
    CCM_AAR_IRQHandler                       0x000193fb   Thumb Code     0  arm_startup_nrf52805.o(.text)
    ECB_IRQHandler                           0x000193fb   Thumb Code     0  arm_startup_nrf52805.o(.text)
    RADIO_IRQHandler                         0x000193fb   Thumb Code     0  arm_startup_nrf52805.o(.text)
    RNG_IRQHandler                           0x000193fb   Thumb Code     0  arm_startup_nrf52805.o(.text)
    SWI0_EGU0_IRQHandler                     0x000193fb   Thumb Code     0  arm_startup_nrf52805.o(.text)
    SWI1_EGU1_IRQHandler                     0x000193fb   Thumb Code     0  arm_startup_nrf52805.o(.text)
    SWI3_IRQHandler                          0x000193fb   Thumb Code     0  arm_startup_nrf52805.o(.text)
    SWI4_IRQHandler                          0x000193fb   Thumb Code     0  arm_startup_nrf52805.o(.text)
    SWI5_IRQHandler                          0x000193fb   Thumb Code     0  arm_startup_nrf52805.o(.text)
    TEMP_IRQHandler                          0x000193fb   Thumb Code     0  arm_startup_nrf52805.o(.text)
    TIMER0_IRQHandler                        0x000193fb   Thumb Code     0  arm_startup_nrf52805.o(.text)
    TIMER1_IRQHandler                        0x000193fb   Thumb Code     0  arm_startup_nrf52805.o(.text)
    TIMER2_IRQHandler                        0x000193fb   Thumb Code     0  arm_startup_nrf52805.o(.text)
    TWIM0_TWIS0_TWI0_IRQHandler              0x000193fb   Thumb Code     0  arm_startup_nrf52805.o(.text)
    UARTE0_UART0_IRQHandler                  0x000193fb   Thumb Code     0  arm_startup_nrf52805.o(.text)
    __aeabi_uldivmod                         0x00019405   Thumb Code    98  uldiv.o(.text)
    __aeabi_llsl                             0x00019467   Thumb Code    30  llshl.o(.text)
    _ll_shift_l                              0x00019467   Thumb Code     0  llshl.o(.text)
    __rt_ctype_table                         0x00019485   Thumb Code     4  ctype_o.o(.text)
    __aeabi_memcpy                           0x0001948d   Thumb Code    36  memcpya.o(.text)
    __aeabi_memcpy4                          0x0001948d   Thumb Code     0  memcpya.o(.text)
    __aeabi_memcpy8                          0x0001948d   Thumb Code     0  memcpya.o(.text)
    __aeabi_memset                           0x000194b1   Thumb Code    14  memseta.o(.text)
    __aeabi_memset4                          0x000194b1   Thumb Code     0  memseta.o(.text)
    __aeabi_memset8                          0x000194b1   Thumb Code     0  memseta.o(.text)
    __aeabi_memclr                           0x000194bf   Thumb Code     4  memseta.o(.text)
    __aeabi_memclr4                          0x000194bf   Thumb Code     0  memseta.o(.text)
    __aeabi_memclr8                          0x000194bf   Thumb Code     0  memseta.o(.text)
    _memset$wrapper                          0x000194c3   Thumb Code    18  memseta.o(.text)
    strlen                                   0x000194d5   Thumb Code    14  strlen.o(.text)
    __aeabi_dmul                             0x000194e3   Thumb Code   228  dmul.o(.text)
    __aeabi_ddiv                             0x000195c7   Thumb Code   222  ddiv.o(.text)
    __ARM_scalbn                             0x000196a5   Thumb Code    46  dscalb.o(.text)
    scalbn                                   0x000196a5   Thumb Code     0  dscalb.o(.text)
    __aeabi_i2d                              0x000196d3   Thumb Code    34  dflti.o(.text)
    __aeabi_ui2d                             0x000196f5   Thumb Code    26  dfltui.o(.text)
    __aeabi_d2uiz                            0x0001970f   Thumb Code    50  dfixui.o(.text)
    __aeabi_llsr                             0x00019741   Thumb Code    32  llushr.o(.text)
    _ll_ushift_r                             0x00019741   Thumb Code     0  llushr.o(.text)
    __I$use$fp                               0x00019761   Thumb Code     0  iusefp.o(.text)
    _double_round                            0x00019761   Thumb Code    30  depilogue.o(.text)
    _double_epilogue                         0x0001977f   Thumb Code   156  depilogue.o(.text)
    __scatterload                            0x0001981d   Thumb Code    28  init.o(.text)
    __scatterload_rt2                        0x0001981d   Thumb Code     0  init.o(.text)
    __decompress                             0x00019841   Thumb Code     0  __dczerorl2.o(.text)
    __decompress1                            0x00019841   Thumb Code    86  __dczerorl2.o(.text)
    GPIOTE_IRQHandler                        0x00019899   Thumb Code   350  nrfx_gpiote.o(i.GPIOTE_IRQHandler)
    POWER_CLOCK_IRQHandler                   0x00019a09   Thumb Code    72  nrfx_clock.o(i.POWER_CLOCK_IRQHandler)
    RTC0_IRQHandler                          0x00019a5d   Thumb Code   166  nrfx_rtc.o(i.RTC0_IRQHandler)
    RTC1_IRQHandler                          0x00019b0d   Thumb Code    10  drv_rtc.o(i.RTC1_IRQHandler)
    SAADC_IRQHandler                         0x00019b21   Thumb Code   342  nrfx_saadc.o(i.SAADC_IRQHandler)
    SEGGER_RTT_Init                          0x00019c95   Thumb Code     4  segger_rtt.o(i.SEGGER_RTT_Init)
    SEGGER_RTT_WriteNoLock                   0x00019c99   Thumb Code   214  segger_rtt.o(i.SEGGER_RTT_WriteNoLock)
    SPIM0_SPIS0_SPI0_IRQHandler              0x00019d75   Thumb Code   176  nrfx_spi.o(i.SPIM0_SPIS0_SPI0_IRQHandler)
    SWI2_IRQHandler                          0x00019e29   Thumb Code    46  nrf_sdh.o(i.SWI2_IRQHandler)
    SystemInit                               0x00019e5d   Thumb Code   308  system_nrf52805.o(i.SystemInit)
    WDT_IRQHandler                           0x0001a009   Thumb Code    32  nrfx_wdt.o(i.WDT_IRQHandler)
    __ARM_common_memclr4_7                   0x0001a0f5   Thumb Code    10  ble_advertising.o(i.__ARM_common_memclr4_7)
    __ARM_common_memcpy4_7                   0x0001a0ff   Thumb Code    18  segger_rtt.o(i.__ARM_common_memcpy4_7)
    __scatterload_copy                       0x0001a111   Thumb Code    14  handlers.o(i.__scatterload_copy)
    __scatterload_null                       0x0001a11f   Thumb Code     2  handlers.o(i.__scatterload_null)
    __scatterload_zeroinit                   0x0001a121   Thumb Code    14  handlers.o(i.__scatterload_zeroinit)
    app_error_fault_handler                  0x0001a131   Thumb Code   170  app_error_weak.o(i.app_error_fault_handler)
    app_error_save_and_stop                  0x0001a29d   Thumb Code   102  app_error.o(i.app_error_save_and_stop)
    app_open_bmi160_aux                      0x0001a309   Thumb Code   212  main.o(i.app_open_bmi160_aux)
    app_open_bmi160_fifo                     0x0001a459   Thumb Code   116  main.o(i.app_open_bmi160_fifo)
    app_timer_callback                       0x0001a565   Thumb Code   114  main.o(i.app_timer_callback)
    app_timer_create                         0x0001a5ed   Thumb Code    32  app_timer2.o(i.app_timer_create)
    app_timer_init                           0x0001a60d   Thumb Code    72  app_timer2.o(i.app_timer_init)
    app_timer_start                          0x0001a66d   Thumb Code   154  app_timer2.o(i.app_timer_start)
    app_timer_stop                           0x0001a715   Thumb Code   100  app_timer2.o(i.app_timer_stop)
    app_util_critical_region_enter           0x0001a781   Thumb Code    84  app_util_platform.o(i.app_util_critical_region_enter)
    app_util_critical_region_exit            0x0001a7dd   Thumb Code    52  app_util_platform.o(i.app_util_critical_region_exit)
    blcm_link_ctx_get                        0x0001a815   Thumb Code    82  ble_link_ctx_manager.o(i.blcm_link_ctx_get)
    ble_advdata_encode                       0x0001a869   Thumb Code   976  ble_advdata.o(i.ble_advdata_encode)
    ble_advdata_parse                        0x0001ac39   Thumb Code    32  ble_advdata.o(i.ble_advdata_parse)
    ble_advdata_search                       0x0001ac59   Thumb Code    96  ble_advdata.o(i.ble_advdata_search)
    ble_advertising_conn_cfg_tag_set         0x0001acb9   Thumb Code     6  ble_advertising.o(i.ble_advertising_conn_cfg_tag_set)
    ble_advertising_init                     0x0001acbf   Thumb Code   270  ble_advertising.o(i.ble_advertising_init)
    ble_advertising_on_ble_evt               0x0001adcd   Thumb Code   140  ble_advertising.o(i.ble_advertising_on_ble_evt)
    ble_advertising_start                    0x0001ae5d   Thumb Code   654  ble_advertising.o(i.ble_advertising_start)
    ble_conn_params_init                     0x0001b0ed   Thumb Code   108  ble_conn_params.o(i.ble_conn_params_init)
    ble_conn_state_conn_idx                  0x0001b169   Thumb Code    28  ble_conn_state.o(i.ble_conn_state_conn_idx)
    ble_nus_data_send                        0x0001b77d   Thumb Code   118  ble_nus.o(i.ble_nus_data_send)
    ble_nus_init                             0x0001b7f5   Thumb Code   238  ble_nus.o(i.ble_nus_init)
    ble_nus_on_ble_evt                       0x0001b8e9   Thumb Code   402  ble_nus.o(i.ble_nus_on_ble_evt)
    ble_send_packet                          0x0001bac1   Thumb Code   106  main.o(i.ble_send_packet)
    ble_send_ram_and_flash_sensor_data       0x0001bb35   Thumb Code   236  main.o(i.ble_send_ram_and_flash_sensor_data)
    ble_srv_is_notification_enabled          0x0001bc81   Thumb Code     8  ble_srv_common.o(i.ble_srv_is_notification_enabled)
    bmi160_aux_init                          0x0001bc89   Thumb Code   234  bmi160.o(i.bmi160_aux_init)
    bmi160_aux_read                          0x0001bd75   Thumb Code   284  bmi160.o(i.bmi160_aux_read)
    bmi160_aux_write                         0x0001be91   Thumb Code   116  bmi160.o(i.bmi160_aux_write)
    bmi160_extract_accel                     0x0001bf05   Thumb Code   942  bmi160.o(i.bmi160_extract_accel)
    bmi160_extract_aux                       0x0001c2b3   Thumb Code   972  bmi160.o(i.bmi160_extract_aux)
    bmi160_extract_gyro                      0x0001c681   Thumb Code   896  bmi160.o(i.bmi160_extract_gyro)
    bmi160_get_fifo_data                     0x0001ca01   Thumb Code   126  bmi160.o(i.bmi160_get_fifo_data)
    bmi160_get_regs                          0x0001ca7f   Thumb Code    54  bmi160.o(i.bmi160_get_regs)
    bmi160_init                              0x0001cab5   Thumb Code   226  bmi160.o(i.bmi160_init)
    bmi160_set_aux_auto_mode                 0x0001cb97   Thumb Code   224  bmi160.o(i.bmi160_set_aux_auto_mode)
    bmi160_set_fifo_config                   0x0001cc77   Thumb Code   132  bmi160.o(i.bmi160_set_fifo_config)
    bmi160_set_fifo_flush                    0x0001ccfb   Thumb Code    36  bmi160.o(i.bmi160_set_fifo_flush)
    bmi160_set_power_mode                    0x0001cd1f   Thumb Code   274  bmi160.o(i.bmi160_set_power_mode)
    bmi160_set_regs                          0x0001ce31   Thumb Code   146  bmi160.o(i.bmi160_set_regs)
    bmi160_set_sens_conf                     0x0001cec3   Thumb Code   462  bmi160.o(i.bmi160_set_sens_conf)
    bmi160_soft_reset                        0x0001d091   Thumb Code   112  bmi160.o(i.bmi160_soft_reset)
    bmm150_aux_mag_data                      0x0001d101   Thumb Code   476  bmm150.o(i.bmm150_aux_mag_data)
    bmm150_aux_read                          0x0001d2e5   Thumb Code    20  main.o(i.bmm150_aux_read)
    bmm150_aux_write                         0x0001d2fd   Thumb Code    20  main.o(i.bmm150_aux_write)
    bmm150_get_regs                          0x0001d315   Thumb Code    64  bmm150.o(i.bmm150_get_regs)
    bmm150_init                              0x0001d355   Thumb Code   314  bmm150.o(i.bmm150_init)
    bmm150_set_op_mode                       0x0001d48f   Thumb Code   288  bmm150.o(i.bmm150_set_op_mode)
    bmm150_set_presetmode                    0x0001d5af   Thumb Code   140  bmm150.o(i.bmm150_set_presetmode)
    bmm150_set_regs                          0x0001d63b   Thumb Code    58  bmm150.o(i.bmm150_set_regs)
    bsp_board_button_idx_to_pin              0x0001d675   Thumb Code     6  boards.o(i.bsp_board_button_idx_to_pin)
    bsp_board_led_invert                     0x0001d681   Thumb Code    34  boards.o(i.bsp_board_led_invert)
    bsp_board_led_off                        0x0001d6a9   Thumb Code    20  boards.o(i.bsp_board_led_off)
    bsp_board_led_on                         0x0001d6c1   Thumb Code    20  boards.o(i.bsp_board_led_on)
    bsp_board_led_state_get                  0x0001d6d9   Thumb Code    30  boards.o(i.bsp_board_led_state_get)
    bsp_board_leds_off                       0x0001d6fd   Thumb Code    30  boards.o(i.bsp_board_leds_off)
    bsp_board_leds_on                        0x0001d721   Thumb Code    30  boards.o(i.bsp_board_leds_on)
    bsp_board_pin_to_button_idx              0x0001d745   Thumb Code    38  boards.o(i.bsp_board_pin_to_button_idx)
    bsp_btn_ble_sleep_mode_prepare           0x0001d76b   Thumb Code    34  bsp_btn_ble.o(i.bsp_btn_ble_sleep_mode_prepare)
    bsp_event_to_button_action_assign        0x0001d82d   Thumb Code    74  bsp.o(i.bsp_event_to_button_action_assign)
    bsp_indication_set                       0x0001d87d   Thumb Code    22  bsp.o(i.bsp_indication_set)
    bsp_wakeup_button_enable                 0x0001db55   Thumb Code    50  bsp.o(i.bsp_wakeup_button_enable)
    characteristic_add                       0x0001dd13   Thumb Code   410  ble_srv_common.o(i.characteristic_add)
    conn_handle_list_get                     0x0001df0f   Thumb Code    82  ble_conn_state.o(i.conn_handle_list_get)
    drv_rtc_compare_disable                  0x0001df7d   Thumb Code    22  drv_rtc.o(i.drv_rtc_compare_disable)
    drv_rtc_compare_pending                  0x0001df93   Thumb Code    38  drv_rtc.o(i.drv_rtc_compare_pending)
    drv_rtc_compare_set                      0x0001dfb9   Thumb Code    76  drv_rtc.o(i.drv_rtc_compare_set)
    drv_rtc_counter_get                      0x0001e005   Thumb Code     8  drv_rtc.o(i.drv_rtc_counter_get)
    drv_rtc_init                             0x0001e00d   Thumb Code   156  drv_rtc.o(i.drv_rtc_init)
    drv_rtc_irq_trigger                      0x0001e0ed   Thumb Code    28  drv_rtc.o(i.drv_rtc_irq_trigger)
    drv_rtc_overflow_enable                  0x0001e109   Thumb Code    20  drv_rtc.o(i.drv_rtc_overflow_enable)
    drv_rtc_overflow_pending                 0x0001e11d   Thumb Code    34  drv_rtc.o(i.drv_rtc_overflow_pending)
    drv_rtc_start                            0x0001e13f   Thumb Code     8  drv_rtc.o(i.drv_rtc_start)
    drv_rtc_stop                             0x0001e147   Thumb Code     8  drv_rtc.o(i.drv_rtc_stop)
    drv_rtc_windowed_compare_set             0x0001e151   Thumb Code   252  drv_rtc.o(i.drv_rtc_windowed_compare_set)
    gatt_evt_handler                         0x0001e369   Thumb Code    54  main.o(i.gatt_evt_handler)
    log_pending_hook                         0x0001e42d   Thumb Code     2  nrf_log_frontend.o(i.log_pending_hook)
    main                                     0x0001e431   Thumb Code  1880  main.o(i.main)
    nrf52_read_spi                           0x0001ebc5   Thumb Code    80  main.o(i.nrf52_read_spi)
    nrf52_write_spi                          0x0001ec25   Thumb Code    72  main.o(i.nrf52_write_spi)
    nrf_atfifo_clear                         0x0001ec79   Thumb Code    16  nrf_atfifo.o(i.nrf_atfifo_clear)
    nrf_atfifo_init                          0x0001ec89   Thumb Code    42  nrf_atfifo.o(i.nrf_atfifo_init)
    nrf_atfifo_item_alloc                    0x0001ecb3   Thumb Code    24  nrf_atfifo.o(i.nrf_atfifo_item_alloc)
    nrf_atfifo_item_free                     0x0001eccb   Thumb Code    22  nrf_atfifo.o(i.nrf_atfifo_item_free)
    nrf_atfifo_item_get                      0x0001ece1   Thumb Code    24  nrf_atfifo.o(i.nrf_atfifo_item_get)
    nrf_atfifo_item_put                      0x0001ecf9   Thumb Code    22  nrf_atfifo.o(i.nrf_atfifo_item_put)
    nrf_atflags_clear                        0x0001ed0f   Thumb Code    24  nrf_atflags.o(i.nrf_atflags_clear)
    nrf_atflags_get                          0x0001ed27   Thumb Code    24  nrf_atflags.o(i.nrf_atflags_get)
    nrf_atflags_set                          0x0001ed3f   Thumb Code    22  nrf_atflags.o(i.nrf_atflags_set)
    nrf_atomic_flag_clear_fetch              0x0001ed55   Thumb Code    12  nrf_atomic.o(i.nrf_atomic_flag_clear_fetch)
    nrf_atomic_flag_set                      0x0001ed61   Thumb Code    14  nrf_atomic.o(i.nrf_atomic_flag_set)
    nrf_atomic_flag_set_fetch                0x0001ed6f   Thumb Code    12  nrf_atomic.o(i.nrf_atomic_flag_set_fetch)
    nrf_atomic_u32_add                       0x0001ed7b   Thumb Code    12  nrf_atomic.o(i.nrf_atomic_u32_add)
    nrf_atomic_u32_and                       0x0001ed87   Thumb Code    12  nrf_atomic.o(i.nrf_atomic_u32_and)
    nrf_atomic_u32_fetch_store               0x0001ed93   Thumb Code    10  nrf_atomic.o(i.nrf_atomic_u32_fetch_store)
    nrf_atomic_u32_or                        0x0001ed9d   Thumb Code    12  nrf_atomic.o(i.nrf_atomic_u32_or)
    nrf_atomic_u32_sub                       0x0001eda9   Thumb Code    12  nrf_atomic.o(i.nrf_atomic_u32_sub)
    nrf_balloc_alloc                         0x0001edb5   Thumb Code    68  nrf_balloc.o(i.nrf_balloc_alloc)
    nrf_balloc_free                          0x0001edf9   Thumb Code    48  nrf_balloc.o(i.nrf_balloc_free)
    nrf_balloc_init                          0x0001ee29   Thumb Code    56  nrf_balloc.o(i.nrf_balloc_init)
    nrf_ble_gatt_att_mtu_periph_set          0x0001ee61   Thumb Code    24  nrf_ble_gatt.o(i.nrf_ble_gatt_att_mtu_periph_set)
    nrf_ble_gatt_init                        0x0001ee79   Thumb Code    36  nrf_ble_gatt.o(i.nrf_ble_gatt_init)
    nrf_ble_gatt_on_ble_evt                  0x0001ee9d   Thumb Code   390  nrf_ble_gatt.o(i.nrf_ble_gatt_on_ble_evt)
    nrf_ble_qwr_conn_handle_assign           0x0001f151   Thumb Code    22  nrf_ble_qwr.o(i.nrf_ble_qwr_conn_handle_assign)
    nrf_ble_qwr_init                         0x0001f167   Thumb Code    38  nrf_ble_qwr.o(i.nrf_ble_qwr_init)
    nrf_ble_qwr_on_ble_evt                   0x0001f18d   Thumb Code   260  nrf_ble_qwr.o(i.nrf_ble_qwr_on_ble_evt)
    nrf_drv_spi_init                         0x0001f2b1   Thumb Code    32  nrf_drv_spi.o(i.nrf_drv_spi_init)
    nrf_flash_erase                          0x0001f2d9   Thumb Code    64  nrf_flash.o(i.nrf_flash_erase)
    nrf_flash_init                           0x0001f341   Thumb Code   118  nrf_flash.o(i.nrf_flash_init)
    nrf_flash_read                           0x0001f449   Thumb Code    60  nrf_flash.o(i.nrf_flash_read)
    nrf_flash_write                          0x0001f4ad   Thumb Code    78  nrf_flash.o(i.nrf_flash_write)
    nrf_fprintf                              0x0001f525   Thumb Code    32  nrf_fprintf.o(i.nrf_fprintf)
    nrf_fprintf_buffer_flush                 0x0001f545   Thumb Code    26  nrf_fprintf.o(i.nrf_fprintf_buffer_flush)
    nrf_fprintf_fmt                          0x0001f561   Thumb Code  1076  nrf_fprintf_format.o(i.nrf_fprintf_fmt)
    nrf_fstorage_erase                       0x0001f999   Thumb Code   178  nrf_fstorage.o(i.nrf_fstorage_erase)
    nrf_fstorage_init                        0x0001fac9   Thumb Code    86  nrf_fstorage.o(i.nrf_fstorage_init)
    nrf_fstorage_is_busy                     0x0001fb69   Thumb Code    76  nrf_fstorage.o(i.nrf_fstorage_is_busy)
    nrf_fstorage_read                        0x0001fbc1   Thumb Code   192  nrf_fstorage.o(i.nrf_fstorage_read)
    nrf_fstorage_sdh_req_handler             0x0001fd19   Thumb Code    18  nrf_fstorage_sd.o(i.nrf_fstorage_sdh_req_handler)
    nrf_fstorage_sdh_state_handler           0x0001fd31   Thumb Code    30  nrf_fstorage_sd.o(i.nrf_fstorage_sdh_state_handler)
    nrf_fstorage_sys_evt_handler             0x0001fd55   Thumb Code   238  nrf_fstorage_sd.o(i.nrf_fstorage_sys_evt_handler)
    nrf_fstorage_write                       0x0001fe55   Thumb Code   266  nrf_fstorage.o(i.nrf_fstorage_write)
    nrf_log_backend_add                      0x00020049   Thumb Code   100  nrf_log_frontend.o(i.nrf_log_backend_add)
    nrf_log_backend_rtt_init                 0x000200b3   Thumb Code     4  nrf_log_backend_rtt.o(i.nrf_log_backend_rtt_init)
    nrf_log_backend_serial_put               0x000200d1   Thumb Code   196  nrf_log_backend_serial.o(i.nrf_log_backend_serial_put)
    nrf_log_color_id_get                     0x00020195   Thumb Code    40  nrf_log_frontend.o(i.nrf_log_color_id_get)
    nrf_log_default_backends_init            0x000201c1   Thumb Code    22  nrf_log_default_backends.o(i.nrf_log_default_backends_init)
    nrf_log_frontend_dequeue                 0x000201e1   Thumb Code   594  nrf_log_frontend.o(i.nrf_log_frontend_dequeue)
    nrf_log_frontend_std_0                   0x0002045d   Thumb Code     8  nrf_log_frontend.o(i.nrf_log_frontend_std_0)
    nrf_log_frontend_std_1                   0x00020465   Thumb Code    14  nrf_log_frontend.o(i.nrf_log_frontend_std_1)
    nrf_log_frontend_std_2                   0x00020473   Thumb Code    20  nrf_log_frontend.o(i.nrf_log_frontend_std_2)
    nrf_log_frontend_std_3                   0x00020487   Thumb Code    28  nrf_log_frontend.o(i.nrf_log_frontend_std_3)
    nrf_log_frontend_std_5                   0x000204a3   Thumb Code    28  nrf_log_frontend.o(i.nrf_log_frontend_std_5)
    nrf_log_hexdump_entry_process            0x000204c1   Thumb Code   256  nrf_log_str_formatter.o(i.nrf_log_hexdump_entry_process)
    nrf_log_init                             0x000205f1   Thumb Code    30  nrf_log_frontend.o(i.nrf_log_init)
    nrf_log_module_name_get                  0x0002061d   Thumb Code    54  nrf_log_frontend.o(i.nrf_log_module_name_get)
    nrf_log_panic                            0x00020661   Thumb Code    40  nrf_log_frontend.o(i.nrf_log_panic)
    nrf_log_std_entry_process                0x0002068d   Thumb Code   286  nrf_log_str_formatter.o(i.nrf_log_std_entry_process)
    nrf_memobj_alloc                         0x000207f1   Thumb Code   148  nrf_memobj.o(i.nrf_memobj_alloc)
    nrf_memobj_get                           0x00020885   Thumb Code     8  nrf_memobj.o(i.nrf_memobj_get)
    nrf_memobj_pool_init                     0x0002088d   Thumb Code     4  nrf_memobj.o(i.nrf_memobj_pool_init)
    nrf_memobj_put                           0x00020891   Thumb Code    86  nrf_memobj.o(i.nrf_memobj_put)
    nrf_memobj_read                          0x000208e7   Thumb Code   158  nrf_memobj.o(i.nrf_memobj_read)
    nrf_memobj_write                         0x00020985   Thumb Code   146  nrf_memobj.o(i.nrf_memobj_write)
    nrf_pwr_mgmt_init                        0x00020a19   Thumb Code    28  nrf_pwr_mgmt.o(i.nrf_pwr_mgmt_init)
    nrf_pwr_mgmt_run                         0x00020a41   Thumb Code    20  nrf_pwr_mgmt.o(i.nrf_pwr_mgmt_run)
    nrf_ringbuf_init                         0x00020a71   Thumb Code    28  nrf_ringbuf.o(i.nrf_ringbuf_init)
    nrf_sdh_ble_default_cfg_set              0x00020a8d   Thumb Code   270  nrf_sdh_ble.o(i.nrf_sdh_ble_default_cfg_set)
    nrf_sdh_ble_enable                       0x00020bc1   Thumb Code   168  nrf_sdh_ble.o(i.nrf_sdh_ble_enable)
    nrf_sdh_disable_request                  0x00020e81   Thumb Code   272  nrf_sdh.o(i.nrf_sdh_disable_request)
    nrf_sdh_enable_request                   0x00020fb9   Thumb Code   340  nrf_sdh.o(i.nrf_sdh_enable_request)
    nrf_sdh_is_enabled                       0x000211e1   Thumb Code     6  nrf_sdh.o(i.nrf_sdh_is_enabled)
    nrf_sdh_request_continue                 0x000211ed   Thumb Code    24  nrf_sdh.o(i.nrf_sdh_request_continue)
    nrf_section_iter_init                    0x00021295   Thumb Code    34  nrf_section_iter.o(i.nrf_section_iter_init)
    nrf_section_iter_next                    0x000212b7   Thumb Code    56  nrf_section_iter.o(i.nrf_section_iter_next)
    nrf_sortlist_add                         0x000212ef   Thumb Code    36  nrf_sortlist.o(i.nrf_sortlist_add)
    nrf_sortlist_peek                        0x00021313   Thumb Code     6  nrf_sortlist.o(i.nrf_sortlist_peek)
    nrf_sortlist_pop                         0x00021319   Thumb Code    16  nrf_sortlist.o(i.nrf_sortlist_pop)
    nrf_sortlist_remove                      0x00021329   Thumb Code    38  nrf_sortlist.o(i.nrf_sortlist_remove)
    nrf_strerror_get                         0x00021351   Thumb Code    60  nrf_strerror.o(i.nrf_strerror_get)
    nrfx_clock_enable                        0x00021395   Thumb Code    34  nrfx_clock.o(i.nrfx_clock_enable)
    nrfx_clock_init                          0x000213c1   Thumb Code    24  nrfx_clock.o(i.nrfx_clock_init)
    nrfx_clock_lfclk_stop                    0x000213dd   Thumb Code    38  nrfx_clock.o(i.nrfx_clock_lfclk_stop)
    nrfx_saadc_channel_init                  0x0002140d   Thumb Code   154  nrfx_saadc.o(i.nrfx_saadc_channel_init)
    nrfx_saadc_init                          0x000214ad   Thumb Code   138  nrfx_saadc.o(i.nrfx_saadc_init)
    nrfx_saadc_sample_convert                0x00021559   Thumb Code   258  nrfx_saadc.o(i.nrfx_saadc_sample_convert)
    nrfx_saadc_uninit                        0x0002168d   Thumb Code   200  nrfx_saadc.o(i.nrfx_saadc_uninit)
    nrfx_spi_init                            0x00021765   Thumb Code   380  nrfx_spi.o(i.nrfx_spi_init)
    nrfx_spi_uninit                          0x000218e5   Thumb Code    94  nrfx_spi.o(i.nrfx_spi_uninit)
    nrfx_spi_xfer                            0x00021949   Thumb Code   356  nrfx_spi.o(i.nrfx_spi_xfer)
    nrfx_wdt_channel_alloc                   0x00021ab1   Thumb Code    62  nrfx_wdt.o(i.nrfx_wdt_channel_alloc)
    nrfx_wdt_channel_feed                    0x00021af9   Thumb Code    18  nrfx_wdt.o(i.nrfx_wdt_channel_feed)
    nrfx_wdt_enable                          0x00021b11   Thumb Code    18  nrfx_wdt.o(i.nrfx_wdt_enable)
    nrfx_wdt_init                            0x00021b2d   Thumb Code    76  nrfx_wdt.o(i.nrfx_wdt_init)
    queue_empty                              0x000220c5   Thumb Code    18  sys_queue.o(i.queue_empty)
    queue_full                               0x000220d7   Thumb Code    18  sys_queue.o(i.queue_full)
    queue_in                                 0x000220e9   Thumb Code   134  sys_queue.o(i.queue_in)
    queue_init                               0x00022175   Thumb Code    24  sys_queue.o(i.queue_init)
    queue_out                                0x0002218d   Thumb Code   104  sys_queue.o(i.queue_out)
    saadc_callback                           0x000224f5   Thumb Code     2  main.o(i.saadc_callback)
    save_sensor_data_to_ram_and_flash        0x000224f9   Thumb Code   112  main.o(i.save_sensor_data_to_ram_and_flash)
    spi_event_handler                        0x000227bd   Thumb Code     8  main.o(i.spi_event_handler)
    usr_get_volt                             0x00022c69   Thumb Code    66  main.o(i.usr_get_volt)
    wdt_event_handler                        0x00022e21   Thumb Code     2  main.o(i.wdt_event_handler)
    nrf_fstorage_sd                          0x00023168   Data          32  nrf_fstorage_sd.o(.constdata)
    nrf_log_backend_rtt_api                  0x00023188   Data          12  nrf_log_backend_rtt.o(.constdata)
    m_ram_start                              0x0002322c   Data           4  nrf_sdh_ble.o(.constdata)
    __ctype_table                            0x00023258   Data         129  ctype_o.o(.constdata)
    Region$$Table$$Base                      0x00023a98   Number         0  anon$$obj.o(Region$$Table)
    Region$$Table$$Limit                     0x00023ab8   Number         0  anon$$obj.o(Region$$Table)
    log_const_data$$Base                     0x00023ac8   Number         0  nrf_ble_gatt.o(log_const_data)
    m_nrf_log_nrf_ble_gatt_logs_data_const   0x00023ac8   Data           8  nrf_ble_gatt.o(log_const_data)
    m_nrf_log_ble_nus_logs_data_const        0x00023ad0   Data           8  ble_nus.o(log_const_data)
    m_nrf_log_clock_logs_data_const          0x00023ad8   Data           8  nrf_drv_clock.o(log_const_data)
    m_nrf_log_CLOCK_logs_data_const          0x00023ae0   Data           8  nrfx_clock.o(log_const_data)
    m_nrf_log_GPIOTE_logs_data_const         0x00023ae8   Data           8  nrfx_gpiote.o(log_const_data)
    m_nrf_log_SAADC_logs_data_const          0x00023af0   Data           8  nrfx_saadc.o(log_const_data)
    m_nrf_log_SPI_logs_data_const            0x00023af8   Data           8  nrfx_spi.o(log_const_data)
    m_nrf_log_WDT_logs_data_const            0x00023b00   Data           8  nrfx_wdt.o(log_const_data)
    m_nrf_log_RTC_logs_data_const            0x00023b08   Data           8  nrfx_rtc.o(log_const_data)
    m_nrf_log_app_button_logs_data_const     0x00023b10   Data           8  app_button.o(log_const_data)
    m_nrf_log_app_timer_logs_data_const      0x00023b18   Data           8  app_timer2.o(log_const_data)
    m_nrf_log_pwr_mgmt_logs_data_const       0x00023b20   Data           8  nrf_pwr_mgmt.o(log_const_data)
    m_nrf_log_sortlist_logs_data_const       0x00023b28   Data           8  nrf_sortlist.o(log_const_data)
    m_nrf_log_nrf_fstorage_logs_data_const   0x00023b30   Data           8  nrf_fstorage.o(log_const_data)
    m_nrf_log_app_logs_data_const            0x00023b38   Data           8  nrf_log_frontend.o(log_const_data)
    m_nrf_log_nrf_sdh_logs_data_const        0x00023b40   Data           8  nrf_sdh.o(log_const_data)
    m_nrf_log_nrf_sdh_ble_logs_data_const    0x00023b48   Data           8  nrf_sdh_ble.o(log_const_data)
    m_nrf_log_nrf_sdh_soc_logs_data_const    0x00023b50   Data           8  nrf_sdh_soc.o(log_const_data)
    log_const_data$$Limit                    0x00023b58   Number         0  nrf_sdh_soc.o(log_const_data)
    log_mempool                              0x00023b58   Data          20  nrf_log_frontend.o(nrf_balloc)
    sdh_ble_observers0$$Base                 0x00023b6c   Number         0  ble_conn_state.o(sdh_ble_observers0)
    sdh_ble_observers0$$Limit                0x00023b74   Number         0  ble_conn_state.o(sdh_ble_observers0)
    sdh_ble_observers1$$Base                 0x00023b74   Number         0  main.o(sdh_ble_observers1)
    sdh_ble_observers1$$Limit                0x00023b94   Number         0  ble_conn_params.o(sdh_ble_observers1)
    sdh_ble_observers2$$Base                 0x00023b94   Number         0  main.o(sdh_ble_observers2)
    sdh_ble_observers2$$Limit                0x00023ba4   Number         0  main.o(sdh_ble_observers2)
    sdh_ble_observers3$$Base                 0x00023ba4   Number         0  main.o(sdh_ble_observers3)
    m_req_obs                                0x00023bac   Data           8  nrf_fstorage_sd.o(sdh_req_observers0)
    sdh_ble_observers3$$Limit                0x00023bac   Number         0  main.o(sdh_ble_observers3)
    sdh_req_observers0$$Base                 0x00023bac   Number         0  nrf_fstorage_sd.o(sdh_req_observers0)
    sdh_req_observers0$$Limit                0x00023bb4   Number         0  nrf_fstorage_sd.o(sdh_req_observers0)
    sdh_soc_observers0$$Base                 0x00023bb4   Number         0  nrf_drv_clock.o(sdh_soc_observers0)
    sdh_soc_observers0$$Limit                0x00023bc4   Number         0  nrf_fstorage_sd.o(sdh_soc_observers0)
    sdh_stack_observers0$$Base               0x00023bc4   Number         0  nrf_sdh_ble.o(sdh_stack_observers0)
    sdh_stack_observers0$$Limit              0x00023bd4   Number         0  nrf_sdh_soc.o(sdh_stack_observers0)
    sdh_state_observers0$$Base               0x00023bd4   Number         0  nrf_drv_clock.o(sdh_state_observers0)
    sdh_state_observers0$$Limit              0x00023be4   Number         0  nrf_fstorage_sd.o(sdh_state_observers0)
    Image$$RW_IRAM1$$Base                    0x200022c8   Number         0  anon$$obj.o ABSOLUTE
    acc_frames_req                           0x200022d5   Data           1  main.o(.data)
    gyro_frames_req                          0x200022d6   Data           1  main.o(.data)
    mag_frames_req                           0x200022d7   Data           1  main.o(.data)
    m_channel_id                             0x200022d8   Data           1  main.o(.data)
    bmi160_fifo_ready                        0x200022e2   Data           2  main.o(.data)
    rx_frame_header                          0x200022f4   Data           4  main.o(.data)
    tx_frame_header                          0x200022f8   Data           4  main.o(.data)
    bmm150                                   0x20002318   Data          60  main.o(.data)
    SystemCoreClock                          0x200024cc   Data           4  system_nrf52805.o(.data)
    fs_data$$Base                            0x200024d0   Number         0  nrf_flash.o(fs_data)
    fstorage                                 0x200024d0   Data          20  nrf_flash.o(fs_data)
    fs_data$$Limit                           0x200024e4   Number         0  nrf_flash.o(fs_data)
    bmi160dev                                0x200040d4   Data          44  main.o(.bss)
    fifo_buff                                0x20004100   Data        1024  main.o(.bss)
    fifo_frame                               0x20004500   Data          24  main.o(.bss)
    fifo_acc_data                            0x20004518   Data         120  main.o(.bss)
    fifo_gyro_data                           0x20004590   Data         120  main.o(.bss)
    fifo_mag_data                            0x20004608   Data          80  main.o(.bss)
    nrf_nvic_state                           0x20004888   Data          12  app_util_platform.o(.bss)
    _SEGGER_RTT                              0x20004f08   Data         120  segger_rtt.o(.bss)
    __initial_sp                             0x20005990   Data           0  arm_startup_nrf52805.o(STACK)



==============================================================================

Memory Map of the image

  Image Entry point : 0x00019201

  Load Region LR_IROM1 (Base: 0x00019000, Size: 0x0000ae00, Max: 0x00017000, ABSOLUTE, COMPRESSED[0x0000ac64])

    Execution Region ER_IROM1 (Exec base: 0x00019000, Load base: 0x00019000, Size: 0x0000abe4, Max: 0x00017000, ABSOLUTE)

    Exec Addr    Load Addr    Size         Type   Attr      Idx    E Section Name        Object

    0x00019000   0x00019000   0x00000200   Data   RO         5686    RESET               arm_startup_nrf52805.o
    0x00019200   0x00019200   0x00000000   Code   RO         5731  * .ARM.Collect$$$$00000000  mc_w.l(entry.o)
    0x00019200   0x00019200   0x00000004   Code   RO         5795    .ARM.Collect$$$$00000001  mc_w.l(entry2.o)
    0x00019204   0x00019204   0x00000004   Code   RO         5798    .ARM.Collect$$$$00000004  mc_w.l(entry5.o)
    0x00019208   0x00019208   0x00000000   Code   RO         5800    .ARM.Collect$$$$00000008  mc_w.l(entry7b.o)
    0x00019208   0x00019208   0x00000000   Code   RO         5802    .ARM.Collect$$$$0000000A  mc_w.l(entry8b.o)
    0x00019208   0x00019208   0x00000008   Code   RO         5803    .ARM.Collect$$$$0000000B  mc_w.l(entry9a.o)
    0x00019210   0x00019210   0x00000004   Code   RO         5810    .ARM.Collect$$$$0000000E  mc_w.l(entry12b.o)
    0x00019214   0x00019214   0x00000000   Code   RO         5805    .ARM.Collect$$$$0000000F  mc_w.l(entry10a.o)
    0x00019214   0x00019214   0x00000000   Code   RO         5807    .ARM.Collect$$$$00000011  mc_w.l(entry11a.o)
    0x00019214   0x00019214   0x00000004   Code   RO         5796    .ARM.Collect$$$$00002712  mc_w.l(entry2.o)
    0x00019218   0x00019218   0x0000001a   Code   RO         3351    .emb_text           app_error_handler_keil.o
    0x00019232   0x00019232   0x00000002   PAD
    0x00019234   0x00019234   0x000000c8   Code   RO         3918    .emb_text           nrf_atfifo.o
    0x000192fc   0x000192fc   0x000000e2   Code   RO         4053    .emb_text           nrf_atomic.o
    0x000193de   0x000193de   0x00000002   PAD
    0x000193e0   0x000193e0   0x00000024   Code   RO         5687    .text               arm_startup_nrf52805.o
    0x00019404   0x00019404   0x00000062   Code   RO         5739    .text               mc_w.l(uldiv.o)
    0x00019466   0x00019466   0x0000001e   Code   RO         5741    .text               mc_w.l(llshl.o)
    0x00019484   0x00019484   0x00000008   Code   RO         5743    .text               mc_w.l(ctype_o.o)
    0x0001948c   0x0001948c   0x00000024   Code   RO         5771    .text               mc_w.l(memcpya.o)
    0x000194b0   0x000194b0   0x00000024   Code   RO         5773    .text               mc_w.l(memseta.o)
    0x000194d4   0x000194d4   0x0000000e   Code   RO         5775    .text               mc_w.l(strlen.o)
    0x000194e2   0x000194e2   0x000000e4   Code   RO         5783    .text               mf_w.l(dmul.o)
    0x000195c6   0x000195c6   0x000000de   Code   RO         5785    .text               mf_w.l(ddiv.o)
    0x000196a4   0x000196a4   0x0000002e   Code   RO         5787    .text               mf_w.l(dscalb.o)
    0x000196d2   0x000196d2   0x00000022   Code   RO         5789    .text               mf_w.l(dflti.o)
    0x000196f4   0x000196f4   0x0000001a   Code   RO         5791    .text               mf_w.l(dfltui.o)
    0x0001970e   0x0001970e   0x00000032   Code   RO         5793    .text               mf_w.l(dfixui.o)
    0x00019740   0x00019740   0x00000020   Code   RO         5812    .text               mc_w.l(llushr.o)
    0x00019760   0x00019760   0x00000000   Code   RO         5814    .text               mc_w.l(iusefp.o)
    0x00019760   0x00019760   0x000000ba   Code   RO         5816    .text               mf_w.l(depilogue.o)
    0x0001981a   0x0001981a   0x00000002   PAD
    0x0001981c   0x0001981c   0x00000024   Code   RO         5818    .text               mc_w.l(init.o)
    0x00019840   0x00019840   0x00000056   Code   RO         5828    .text               mc_w.l(__dczerorl2.o)
    0x00019896   0x00019896   0x00000002   PAD
    0x00019898   0x00019898   0x00000170   Code   RO         2565    i.GPIOTE_IRQHandler  nrfx_gpiote.o
    0x00019a08   0x00019a08   0x00000054   Code   RO         2440    i.POWER_CLOCK_IRQHandler  nrfx_clock.o
    0x00019a5c   0x00019a5c   0x000000b0   Code   RO         3121    i.RTC0_IRQHandler   nrfx_rtc.o
    0x00019b0c   0x00019b0c   0x00000014   Code   RO         3724    i.RTC1_IRQHandler   drv_rtc.o
    0x00019b20   0x00019b20   0x00000174   Code   RO         2841    i.SAADC_IRQHandler  nrfx_saadc.o
    0x00019c94   0x00019c94   0x00000004   Code   RO         5175    i.SEGGER_RTT_Init   segger_rtt.o
    0x00019c98   0x00019c98   0x000000dc   Code   RO         5189    i.SEGGER_RTT_WriteNoLock  segger_rtt.o
    0x00019d74   0x00019d74   0x000000b4   Code   RO         2961    i.SPIM0_SPIS0_SPI0_IRQHandler  nrfx_spi.o
    0x00019e28   0x00019e28   0x00000034   Code   RO         5502    i.SWI2_IRQHandler   nrf_sdh.o
    0x00019e5c   0x00019e5c   0x000001ac   Code   RO         5695    i.SystemInit        system_nrf52805.o
    0x0001a008   0x0001a008   0x0000002c   Code   RO         3050    i.WDT_IRQHandler    nrfx_wdt.o
    0x0001a034   0x0001a034   0x00000068   Code   RO         5193    i._DoInit           segger_rtt.o
    0x0001a09c   0x0001a09c   0x00000058   Code   RO         5194    i._WriteBlocking    segger_rtt.o
    0x0001a0f4   0x0001a0f4   0x0000000a   Code   RO         1686    i.__ARM_common_memclr4_7  ble_advertising.o
    0x0001a0fe   0x0001a0fe   0x00000012   Code   RO         5339    i.__ARM_common_memcpy4_7  segger_rtt.o
    0x0001a110   0x0001a110   0x0000000e   Code   RO         5822    i.__scatterload_copy  mc_w.l(handlers.o)
    0x0001a11e   0x0001a11e   0x00000002   Code   RO         5823    i.__scatterload_null  mc_w.l(handlers.o)
    0x0001a120   0x0001a120   0x0000000e   Code   RO         5824    i.__scatterload_zeroinit  mc_w.l(handlers.o)
    0x0001a12e   0x0001a12e   0x00000002   PAD
    0x0001a130   0x0001a130   0x0000016c   Code   RO         3373    i.app_error_fault_handler  app_error_weak.o
    0x0001a29c   0x0001a29c   0x0000006c   Code   RO         3314    i.app_error_save_and_stop  app_error.o
    0x0001a308   0x0001a308   0x00000150   Code   RO            8    i.app_open_bmi160_aux  main.o
    0x0001a458   0x0001a458   0x0000010c   Code   RO            9    i.app_open_bmi160_fifo  main.o
    0x0001a564   0x0001a564   0x00000088   Code   RO           13    i.app_timer_callback  main.o
    0x0001a5ec   0x0001a5ec   0x00000020   Code   RO         3531    i.app_timer_create  app_timer2.o
    0x0001a60c   0x0001a60c   0x00000060   Code   RO         3532    i.app_timer_init    app_timer2.o
    0x0001a66c   0x0001a66c   0x000000a8   Code   RO         3535    i.app_timer_start   app_timer2.o
    0x0001a714   0x0001a714   0x0000006c   Code   RO         3536    i.app_timer_stop    app_timer2.o
    0x0001a780   0x0001a780   0x0000005c   Code   RO         3656    i.app_util_critical_region_enter  app_util_platform.o
    0x0001a7dc   0x0001a7dc   0x00000038   Code   RO         3657    i.app_util_critical_region_exit  app_util_platform.o
    0x0001a814   0x0001a814   0x00000052   Code   RO         1923    i.blcm_link_ctx_get  ble_link_ctx_manager.o
    0x0001a866   0x0001a866   0x00000002   PAD
    0x0001a868   0x0001a868   0x000003d0   Code   RO         1546    i.ble_advdata_encode  ble_advdata.o
    0x0001ac38   0x0001ac38   0x00000020   Code   RO         1548    i.ble_advdata_parse  ble_advdata.o
    0x0001ac58   0x0001ac58   0x00000060   Code   RO         1549    i.ble_advdata_search  ble_advdata.o
    0x0001acb8   0x0001acb8   0x00000006   Code   RO         1621    i.ble_advertising_conn_cfg_tag_set  ble_advertising.o
    0x0001acbe   0x0001acbe   0x0000010e   Code   RO         1622    i.ble_advertising_init  ble_advertising.o
    0x0001adcc   0x0001adcc   0x00000090   Code   RO         1624    i.ble_advertising_on_ble_evt  ble_advertising.o
    0x0001ae5c   0x0001ae5c   0x0000028e   Code   RO         1627    i.ble_advertising_start  ble_advertising.o
    0x0001b0ea   0x0001b0ea   0x00000002   PAD
    0x0001b0ec   0x0001b0ec   0x0000007c   Code   RO         1707    i.ble_conn_params_init  ble_conn_params.o
    0x0001b168   0x0001b168   0x00000020   Code   RO         1771    i.ble_conn_state_conn_idx  ble_conn_state.o
    0x0001b188   0x0001b188   0x0000019c   Code   RO           15    i.ble_evt_handler   main.o
    0x0001b324   0x0001b324   0x000000c0   Code   RO         1443    i.ble_evt_handler   bsp_btn_ble.o
    0x0001b3e4   0x0001b3e4   0x00000224   Code   RO         1709    i.ble_evt_handler   ble_conn_params.o
    0x0001b608   0x0001b608   0x00000174   Code   RO         1786    i.ble_evt_handler   ble_conn_state.o
    0x0001b77c   0x0001b77c   0x00000076   Code   RO         2109    i.ble_nus_data_send  ble_nus.o
    0x0001b7f2   0x0001b7f2   0x00000002   PAD
    0x0001b7f4   0x0001b7f4   0x000000f4   Code   RO         2110    i.ble_nus_init      ble_nus.o
    0x0001b8e8   0x0001b8e8   0x00000192   Code   RO         2111    i.ble_nus_on_ble_evt  ble_nus.o
    0x0001ba7a   0x0001ba7a   0x00000002   PAD
    0x0001ba7c   0x0001ba7c   0x00000044   Code   RO           16    i.ble_send_data     main.o
    0x0001bac0   0x0001bac0   0x00000074   Code   RO           17    i.ble_send_packet   main.o
    0x0001bb34   0x0001bb34   0x0000014c   Code   RO           18    i.ble_send_ram_and_flash_sensor_data  main.o
    0x0001bc80   0x0001bc80   0x00000008   Code   RO         1952    i.ble_srv_is_notification_enabled  ble_srv_common.o
    0x0001bc88   0x0001bc88   0x000000ea   Code   RO          767    i.bmi160_aux_init   bmi160.o
    0x0001bd72   0x0001bd72   0x00000002   PAD
    0x0001bd74   0x0001bd74   0x0000011c   Code   RO          768    i.bmi160_aux_read   bmi160.o
    0x0001be90   0x0001be90   0x00000074   Code   RO          769    i.bmi160_aux_write  bmi160.o
    0x0001bf04   0x0001bf04   0x000003ae   Code   RO          771    i.bmi160_extract_accel  bmi160.o
    0x0001c2b2   0x0001c2b2   0x000003cc   Code   RO          772    i.bmi160_extract_aux  bmi160.o
    0x0001c67e   0x0001c67e   0x00000002   PAD
    0x0001c680   0x0001c680   0x00000380   Code   RO          773    i.bmi160_extract_gyro  bmi160.o
    0x0001ca00   0x0001ca00   0x0000007e   Code   RO          774    i.bmi160_get_fifo_data  bmi160.o
    0x0001ca7e   0x0001ca7e   0x00000036   Code   RO          778    i.bmi160_get_regs   bmi160.o
    0x0001cab4   0x0001cab4   0x000000e2   Code   RO          781    i.bmi160_init       bmi160.o
    0x0001cb96   0x0001cb96   0x000000e0   Code   RO          785    i.bmi160_set_aux_auto_mode  bmi160.o
    0x0001cc76   0x0001cc76   0x00000084   Code   RO          786    i.bmi160_set_fifo_config  bmi160.o
    0x0001ccfa   0x0001ccfa   0x00000024   Code   RO          788    i.bmi160_set_fifo_flush  bmi160.o
    0x0001cd1e   0x0001cd1e   0x00000112   Code   RO          792    i.bmi160_set_power_mode  bmi160.o
    0x0001ce30   0x0001ce30   0x00000092   Code   RO          793    i.bmi160_set_regs   bmi160.o
    0x0001cec2   0x0001cec2   0x000001ce   Code   RO          794    i.bmi160_set_sens_conf  bmi160.o
    0x0001d090   0x0001d090   0x00000070   Code   RO          796    i.bmi160_soft_reset  bmi160.o
    0x0001d100   0x0001d100   0x000001e4   Code   RO          670    i.bmm150_aux_mag_data  bmm150.o
    0x0001d2e4   0x0001d2e4   0x00000018   Code   RO           21    i.bmm150_aux_read   main.o
    0x0001d2fc   0x0001d2fc   0x00000018   Code   RO           22    i.bmm150_aux_write  main.o
    0x0001d314   0x0001d314   0x00000040   Code   RO          673    i.bmm150_get_regs   bmm150.o
    0x0001d354   0x0001d354   0x0000013a   Code   RO          675    i.bmm150_init       bmm150.o
    0x0001d48e   0x0001d48e   0x00000120   Code   RO          678    i.bmm150_set_op_mode  bmm150.o
    0x0001d5ae   0x0001d5ae   0x0000008c   Code   RO          679    i.bmm150_set_presetmode  bmm150.o
    0x0001d63a   0x0001d63a   0x0000003a   Code   RO          680    i.bmm150_set_regs   bmm150.o
    0x0001d674   0x0001d674   0x0000000c   Code   RO         1208    i.bsp_board_button_idx_to_pin  boards.o
    0x0001d680   0x0001d680   0x00000028   Code   RO         1212    i.bsp_board_led_invert  boards.o
    0x0001d6a8   0x0001d6a8   0x00000018   Code   RO         1213    i.bsp_board_led_off  boards.o
    0x0001d6c0   0x0001d6c0   0x00000018   Code   RO         1214    i.bsp_board_led_on  boards.o
    0x0001d6d8   0x0001d6d8   0x00000024   Code   RO         1215    i.bsp_board_led_state_get  boards.o
    0x0001d6fc   0x0001d6fc   0x00000024   Code   RO         1216    i.bsp_board_leds_off  boards.o
    0x0001d720   0x0001d720   0x00000024   Code   RO         1217    i.bsp_board_leds_on  boards.o
    0x0001d744   0x0001d744   0x00000026   Code   RO         1218    i.bsp_board_pin_to_button_idx  boards.o
    0x0001d76a   0x0001d76a   0x00000022   Code   RO         1445    i.bsp_btn_ble_sleep_mode_prepare  bsp_btn_ble.o
    0x0001d78c   0x0001d78c   0x000000a0   Code   RO         1328    i.bsp_button_event_handler  bsp.o
    0x0001d82c   0x0001d82c   0x00000050   Code   RO         1332    i.bsp_event_to_button_action_assign  bsp.o
    0x0001d87c   0x0001d87c   0x0000001c   Code   RO         1333    i.bsp_indication_set  bsp.o
    0x0001d898   0x0001d898   0x000002bc   Code   RO         1335    i.bsp_led_indication  bsp.o
    0x0001db54   0x0001db54   0x00000032   Code   RO         1337    i.bsp_wakeup_button_enable  bsp.o
    0x0001db86   0x0001db86   0x00000002   PAD
    0x0001db88   0x0001db88   0x0000012c   Code   RO         4953    i.buf_prealloc      nrf_log_frontend.o
    0x0001dcb4   0x0001dcb4   0x0000002e   Code   RO         4265    i.buffer_add        nrf_fprintf_format.o
    0x0001dce2   0x0001dce2   0x00000030   Code   RO           24    i.calc_checksum     main.o
    0x0001dd12   0x0001dd12   0x0000019a   Code   RO         1954    i.characteristic_add  ble_srv_common.o
    0x0001deac   0x0001deac   0x0000004c   Code   RO         2160    i.clock_irq_handler  nrf_drv_clock.o
    0x0001def8   0x0001def8   0x00000016   Code   RO         3538    i.compare_func      app_timer2.o
    0x0001df0e   0x0001df0e   0x00000052   Code   RO         1787    i.conn_handle_list_get  ble_conn_state.o
    0x0001df60   0x0001df60   0x0000001c   Code   RO           26    i.conn_params_error_handler  main.o
    0x0001df7c   0x0001df7c   0x00000016   Code   RO         3725    i.drv_rtc_compare_disable  drv_rtc.o
    0x0001df92   0x0001df92   0x00000026   Code   RO         3728    i.drv_rtc_compare_pending  drv_rtc.o
    0x0001dfb8   0x0001dfb8   0x0000004c   Code   RO         3729    i.drv_rtc_compare_set  drv_rtc.o
    0x0001e004   0x0001e004   0x00000008   Code   RO         3730    i.drv_rtc_counter_get  drv_rtc.o
    0x0001e00c   0x0001e00c   0x000000e0   Code   RO         3731    i.drv_rtc_init      drv_rtc.o
    0x0001e0ec   0x0001e0ec   0x0000001c   Code   RO         3732    i.drv_rtc_irq_trigger  drv_rtc.o
    0x0001e108   0x0001e108   0x00000014   Code   RO         3734    i.drv_rtc_overflow_enable  drv_rtc.o
    0x0001e11c   0x0001e11c   0x00000022   Code   RO         3735    i.drv_rtc_overflow_pending  drv_rtc.o
    0x0001e13e   0x0001e13e   0x00000008   Code   RO         3736    i.drv_rtc_start     drv_rtc.o
    0x0001e146   0x0001e146   0x00000008   Code   RO         3737    i.drv_rtc_stop      drv_rtc.o
    0x0001e14e   0x0001e14e   0x00000002   PAD
    0x0001e150   0x0001e150   0x00000100   Code   RO         3742    i.drv_rtc_windowed_compare_set  drv_rtc.o
    0x0001e250   0x0001e250   0x00000064   Code   RO         4718    i.erase             nrf_fstorage_sd.o
    0x0001e2b4   0x0001e2b4   0x000000b4   Code   RO         1040    i.fstorage_evt_handler  nrf_flash.o
    0x0001e368   0x0001e368   0x00000080   Code   RO           29    i.gatt_evt_handler  main.o
    0x0001e3e8   0x0001e3e8   0x00000034   Code   RO         4719    i.init              nrf_fstorage_sd.o
    0x0001e41c   0x0001e41c   0x00000010   Code   RO         4720    i.is_busy           nrf_fstorage_sd.o
    0x0001e42c   0x0001e42c   0x00000002   Code   RO         4955    i.log_pending_hook  nrf_log_frontend.o
    0x0001e42e   0x0001e42e   0x00000002   PAD
    0x0001e430   0x0001e430   0x00000794   Code   RO           31    i.main              main.o
    0x0001ebc4   0x0001ebc4   0x00000060   Code   RO           32    i.nrf52_read_spi    main.o
    0x0001ec24   0x0001ec24   0x00000054   Code   RO           33    i.nrf52_write_spi   main.o
    0x0001ec78   0x0001ec78   0x00000010   Code   RO         3920    i.nrf_atfifo_clear  nrf_atfifo.o
    0x0001ec88   0x0001ec88   0x0000002a   Code   RO         3922    i.nrf_atfifo_init   nrf_atfifo.o
    0x0001ecb2   0x0001ecb2   0x00000018   Code   RO         3923    i.nrf_atfifo_item_alloc  nrf_atfifo.o
    0x0001ecca   0x0001ecca   0x00000016   Code   RO         3924    i.nrf_atfifo_item_free  nrf_atfifo.o
    0x0001ece0   0x0001ece0   0x00000018   Code   RO         3925    i.nrf_atfifo_item_get  nrf_atfifo.o
    0x0001ecf8   0x0001ecf8   0x00000016   Code   RO         3926    i.nrf_atfifo_item_put  nrf_atfifo.o
    0x0001ed0e   0x0001ed0e   0x00000018   Code   RO         3988    i.nrf_atflags_clear  nrf_atflags.o
    0x0001ed26   0x0001ed26   0x00000018   Code   RO         3993    i.nrf_atflags_get   nrf_atflags.o
    0x0001ed3e   0x0001ed3e   0x00000016   Code   RO         3995    i.nrf_atflags_set   nrf_atflags.o
    0x0001ed54   0x0001ed54   0x0000000c   Code   RO         4055    i.nrf_atomic_flag_clear_fetch  nrf_atomic.o
    0x0001ed60   0x0001ed60   0x0000000e   Code   RO         4056    i.nrf_atomic_flag_set  nrf_atomic.o
    0x0001ed6e   0x0001ed6e   0x0000000c   Code   RO         4057    i.nrf_atomic_flag_set_fetch  nrf_atomic.o
    0x0001ed7a   0x0001ed7a   0x0000000c   Code   RO         4058    i.nrf_atomic_u32_add  nrf_atomic.o
    0x0001ed86   0x0001ed86   0x0000000c   Code   RO         4059    i.nrf_atomic_u32_and  nrf_atomic.o
    0x0001ed92   0x0001ed92   0x0000000a   Code   RO         4064    i.nrf_atomic_u32_fetch_store  nrf_atomic.o
    0x0001ed9c   0x0001ed9c   0x0000000c   Code   RO         4068    i.nrf_atomic_u32_or  nrf_atomic.o
    0x0001eda8   0x0001eda8   0x0000000c   Code   RO         4070    i.nrf_atomic_u32_sub  nrf_atomic.o
    0x0001edb4   0x0001edb4   0x00000044   Code   RO         4189    i.nrf_balloc_alloc  nrf_balloc.o
    0x0001edf8   0x0001edf8   0x00000030   Code   RO         4190    i.nrf_balloc_free   nrf_balloc.o
    0x0001ee28   0x0001ee28   0x00000038   Code   RO         4191    i.nrf_balloc_init   nrf_balloc.o
    0x0001ee60   0x0001ee60   0x00000018   Code   RO         2010    i.nrf_ble_gatt_att_mtu_periph_set  nrf_ble_gatt.o
    0x0001ee78   0x0001ee78   0x00000024   Code   RO         2012    i.nrf_ble_gatt_init  nrf_ble_gatt.o
    0x0001ee9c   0x0001ee9c   0x000002b4   Code   RO         2013    i.nrf_ble_gatt_on_ble_evt  nrf_ble_gatt.o
    0x0001f150   0x0001f150   0x00000016   Code   RO         2070    i.nrf_ble_qwr_conn_handle_assign  nrf_ble_qwr.o
    0x0001f166   0x0001f166   0x00000026   Code   RO         2071    i.nrf_ble_qwr_init  nrf_ble_qwr.o
    0x0001f18c   0x0001f18c   0x00000104   Code   RO         2072    i.nrf_ble_qwr_on_ble_evt  nrf_ble_qwr.o
    0x0001f290   0x0001f290   0x00000020   Code   RO           34    i.nrf_delay_ms      main.o
    0x0001f2b0   0x0001f2b0   0x00000028   Code   RO         2795    i.nrf_drv_spi_init  nrf_drv_spi.o
    0x0001f2d8   0x0001f2d8   0x00000068   Code   RO         1041    i.nrf_flash_erase   nrf_flash.o
    0x0001f340   0x0001f340   0x00000108   Code   RO         1043    i.nrf_flash_init    nrf_flash.o
    0x0001f448   0x0001f448   0x00000064   Code   RO         1044    i.nrf_flash_read    nrf_flash.o
    0x0001f4ac   0x0001f4ac   0x00000078   Code   RO         1046    i.nrf_flash_write   nrf_flash.o
    0x0001f524   0x0001f524   0x00000020   Code   RO         4226    i.nrf_fprintf       nrf_fprintf.o
    0x0001f544   0x0001f544   0x0000001a   Code   RO         4227    i.nrf_fprintf_buffer_flush  nrf_fprintf.o
    0x0001f55e   0x0001f55e   0x00000002   PAD
    0x0001f560   0x0001f560   0x00000438   Code   RO         4266    i.nrf_fprintf_fmt   nrf_fprintf_format.o
    0x0001f998   0x0001f998   0x00000130   Code   RO         4641    i.nrf_fstorage_erase  nrf_fstorage.o
    0x0001fac8   0x0001fac8   0x000000a0   Code   RO         4642    i.nrf_fstorage_init  nrf_fstorage.o
    0x0001fb68   0x0001fb68   0x00000058   Code   RO         4643    i.nrf_fstorage_is_busy  nrf_fstorage.o
    0x0001fbc0   0x0001fbc0   0x00000158   Code   RO         4644    i.nrf_fstorage_read  nrf_fstorage.o
    0x0001fd18   0x0001fd18   0x00000018   Code   RO         4721    i.nrf_fstorage_sdh_req_handler  nrf_fstorage_sd.o
    0x0001fd30   0x0001fd30   0x00000024   Code   RO         4722    i.nrf_fstorage_sdh_state_handler  nrf_fstorage_sd.o
    0x0001fd54   0x0001fd54   0x00000100   Code   RO         4723    i.nrf_fstorage_sys_evt_handler  nrf_fstorage_sd.o
    0x0001fe54   0x0001fe54   0x000001f4   Code   RO         4648    i.nrf_fstorage_write  nrf_fstorage.o
    0x00020048   0x00020048   0x00000068   Code   RO         4956    i.nrf_log_backend_add  nrf_log_frontend.o
    0x000200b0   0x000200b0   0x00000002   Code   RO         4815    i.nrf_log_backend_rtt_flush  nrf_log_backend_rtt.o
    0x000200b2   0x000200b2   0x00000004   Code   RO         4816    i.nrf_log_backend_rtt_init  nrf_log_backend_rtt.o
    0x000200b6   0x000200b6   0x00000002   Code   RO         4817    i.nrf_log_backend_rtt_panic_set  nrf_log_backend_rtt.o
    0x000200b8   0x000200b8   0x00000018   Code   RO         4818    i.nrf_log_backend_rtt_put  nrf_log_backend_rtt.o
    0x000200d0   0x000200d0   0x000000c4   Code   RO         4884    i.nrf_log_backend_serial_put  nrf_log_backend_serial.o
    0x00020194   0x00020194   0x0000002c   Code   RO         4958    i.nrf_log_color_id_get  nrf_log_frontend.o
    0x000201c0   0x000201c0   0x00000020   Code   RO         4918    i.nrf_log_default_backends_init  nrf_log_default_backends.o
    0x000201e0   0x000201e0   0x0000027c   Code   RO         4959    i.nrf_log_frontend_dequeue  nrf_log_frontend.o
    0x0002045c   0x0002045c   0x00000008   Code   RO         4961    i.nrf_log_frontend_std_0  nrf_log_frontend.o
    0x00020464   0x00020464   0x0000000e   Code   RO         4962    i.nrf_log_frontend_std_1  nrf_log_frontend.o
    0x00020472   0x00020472   0x00000014   Code   RO         4963    i.nrf_log_frontend_std_2  nrf_log_frontend.o
    0x00020486   0x00020486   0x0000001c   Code   RO         4964    i.nrf_log_frontend_std_3  nrf_log_frontend.o
    0x000204a2   0x000204a2   0x0000001c   Code   RO         4966    i.nrf_log_frontend_std_5  nrf_log_frontend.o
    0x000204be   0x000204be   0x00000002   PAD
    0x000204c0   0x000204c0   0x00000130   Code   RO         5126    i.nrf_log_hexdump_entry_process  nrf_log_str_formatter.o
    0x000205f0   0x000205f0   0x0000002c   Code   RO         4968    i.nrf_log_init      nrf_log_frontend.o
    0x0002061c   0x0002061c   0x00000044   Code   RO         4972    i.nrf_log_module_name_get  nrf_log_frontend.o
    0x00020660   0x00020660   0x0000002c   Code   RO         4973    i.nrf_log_panic     nrf_log_frontend.o
    0x0002068c   0x0002068c   0x00000164   Code   RO         5127    i.nrf_log_std_entry_process  nrf_log_str_formatter.o
    0x000207f0   0x000207f0   0x00000094   Code   RO         4300    i.nrf_memobj_alloc  nrf_memobj.o
    0x00020884   0x00020884   0x00000008   Code   RO         4302    i.nrf_memobj_get    nrf_memobj.o
    0x0002088c   0x0002088c   0x00000004   Code   RO         4303    i.nrf_memobj_pool_init  nrf_memobj.o
    0x00020890   0x00020890   0x00000056   Code   RO         4304    i.nrf_memobj_put    nrf_memobj.o
    0x000208e6   0x000208e6   0x0000009e   Code   RO         4305    i.nrf_memobj_read   nrf_memobj.o
    0x00020984   0x00020984   0x00000092   Code   RO         4306    i.nrf_memobj_write  nrf_memobj.o
    0x00020a16   0x00020a16   0x00000002   PAD
    0x00020a18   0x00020a18   0x00000028   Code   RO         4374    i.nrf_pwr_mgmt_init  nrf_pwr_mgmt.o
    0x00020a40   0x00020a40   0x00000014   Code   RO         4375    i.nrf_pwr_mgmt_run  nrf_pwr_mgmt.o
    0x00020a54   0x00020a54   0x0000001c   Code   RO           35    i.nrf_qwr_error_handler  main.o
    0x00020a70   0x00020a70   0x0000001c   Code   RO         4446    i.nrf_ringbuf_init  nrf_ringbuf.o
    0x00020a8c   0x00020a8c   0x00000134   Code   RO         5599    i.nrf_sdh_ble_default_cfg_set  nrf_sdh_ble.o
    0x00020bc0   0x00020bc0   0x000001d8   Code   RO         5600    i.nrf_sdh_ble_enable  nrf_sdh_ble.o
    0x00020d98   0x00020d98   0x000000e8   Code   RO         5601    i.nrf_sdh_ble_evts_poll  nrf_sdh_ble.o
    0x00020e80   0x00020e80   0x00000138   Code   RO         5503    i.nrf_sdh_disable_request  nrf_sdh.o
    0x00020fb8   0x00020fb8   0x00000228   Code   RO         5504    i.nrf_sdh_enable_request  nrf_sdh.o
    0x000211e0   0x000211e0   0x0000000c   Code   RO         5506    i.nrf_sdh_is_enabled  nrf_sdh.o
    0x000211ec   0x000211ec   0x0000001c   Code   RO         5508    i.nrf_sdh_request_continue  nrf_sdh.o
    0x00021208   0x00021208   0x0000008c   Code   RO         5652    i.nrf_sdh_soc_evts_poll  nrf_sdh_soc.o
    0x00021294   0x00021294   0x00000022   Code   RO         4504    i.nrf_section_iter_init  nrf_section_iter.o
    0x000212b6   0x000212b6   0x00000038   Code   RO         4505    i.nrf_section_iter_next  nrf_section_iter.o
    0x000212ee   0x000212ee   0x00000024   Code   RO         4534    i.nrf_sortlist_add  nrf_sortlist.o
    0x00021312   0x00021312   0x00000006   Code   RO         4536    i.nrf_sortlist_peek  nrf_sortlist.o
    0x00021318   0x00021318   0x00000010   Code   RO         4537    i.nrf_sortlist_pop  nrf_sortlist.o
    0x00021328   0x00021328   0x00000026   Code   RO         4538    i.nrf_sortlist_remove  nrf_sortlist.o
    0x0002134e   0x0002134e   0x00000002   PAD
    0x00021350   0x00021350   0x00000044   Code   RO         4591    i.nrf_strerror_get  nrf_strerror.o
    0x00021394   0x00021394   0x0000002c   Code   RO         2445    i.nrfx_clock_enable  nrfx_clock.o
    0x000213c0   0x000213c0   0x0000001c   Code   RO         2448    i.nrfx_clock_init   nrfx_clock.o
    0x000213dc   0x000213dc   0x00000030   Code   RO         2451    i.nrfx_clock_lfclk_stop  nrfx_clock.o
    0x0002140c   0x0002140c   0x000000a0   Code   RO         2845    i.nrfx_saadc_channel_init  nrfx_saadc.o
    0x000214ac   0x000214ac   0x000000ac   Code   RO         2847    i.nrfx_saadc_init   nrfx_saadc.o
    0x00021558   0x00021558   0x00000134   Code   RO         2851    i.nrfx_saadc_sample_convert  nrfx_saadc.o
    0x0002168c   0x0002168c   0x000000d8   Code   RO         2853    i.nrfx_saadc_uninit  nrfx_saadc.o
    0x00021764   0x00021764   0x00000180   Code   RO         2963    i.nrfx_spi_init     nrfx_spi.o
    0x000218e4   0x000218e4   0x00000064   Code   RO         2964    i.nrfx_spi_uninit   nrfx_spi.o
    0x00021948   0x00021948   0x00000168   Code   RO         2965    i.nrfx_spi_xfer     nrfx_spi.o
    0x00021ab0   0x00021ab0   0x00000048   Code   RO         3051    i.nrfx_wdt_channel_alloc  nrfx_wdt.o
    0x00021af8   0x00021af8   0x00000018   Code   RO         3052    i.nrfx_wdt_channel_feed  nrfx_wdt.o
    0x00021b10   0x00021b10   0x0000001c   Code   RO         3053    i.nrfx_wdt_enable   nrfx_wdt.o
    0x00021b2c   0x00021b2c   0x0000005c   Code   RO         3055    i.nrfx_wdt_init     nrfx_wdt.o
    0x00021b88   0x00021b88   0x0000048c   Code   RO           36    i.nus_data_handler  main.o
    0x00022014   0x00022014   0x0000007c   Code   RO           37    i.on_adv_evt        main.o
    0x00022090   0x00022090   0x00000034   Code   RO           38    i.on_conn_params_evt  main.o
    0x000220c4   0x000220c4   0x00000012   Code   RO          996    i.queue_empty       sys_queue.o
    0x000220d6   0x000220d6   0x00000012   Code   RO          997    i.queue_full        sys_queue.o
    0x000220e8   0x000220e8   0x0000008c   Code   RO          998    i.queue_in          sys_queue.o
    0x00022174   0x00022174   0x00000018   Code   RO          999    i.queue_init        sys_queue.o
    0x0002218c   0x0002218c   0x0000006c   Code   RO         1000    i.queue_out         sys_queue.o
    0x000221f8   0x000221f8   0x00000108   Code   RO         4724    i.queue_process     nrf_fstorage_sd.o
    0x00022300   0x00022300   0x0000000e   Code   RO         4725    i.read              nrf_fstorage_sd.o
    0x0002230e   0x0002230e   0x00000004   Code   RO         4726    i.rmap              nrf_fstorage_sd.o
    0x00022312   0x00022312   0x00000002   PAD
    0x00022314   0x00022314   0x000001e0   Code   RO         3539    i.rtc_irq           app_timer2.o
    0x000224f4   0x000224f4   0x00000002   Code   RO           41    i.saadc_callback    main.o
    0x000224f6   0x000224f6   0x00000002   PAD
    0x000224f8   0x000224f8   0x000000a4   Code   RO           43    i.save_sensor_data_to_ram_and_flash  main.o
    0x0002259c   0x0002259c   0x000000a4   Code   RO         2173    i.sd_state_evt_handler  nrf_drv_clock.o
    0x00022640   0x00022640   0x00000064   Code   RO         4819    i.serial_tx         nrf_log_backend_rtt.o
    0x000226a4   0x000226a4   0x000000ba   Code   RO          683    i.set_odr_xyz_rep   bmm150.o
    0x0002275e   0x0002275e   0x00000032   Code   RO         1956    i.set_security_req  ble_srv_common.o
    0x00022790   0x00022790   0x0000002c   Code   RO         2174    i.soc_evt_handler   nrf_drv_clock.o
    0x000227bc   0x000227bc   0x0000000c   Code   RO           46    i.spi_event_handler  main.o
    0x000227c8   0x000227c8   0x00000038   Code   RO         2796    i.spi_evt_handler   nrf_drv_spi.o
    0x00022800   0x00022800   0x000000d8   Code   RO         4975    i.std_n             nrf_log_frontend.o
    0x000228d8   0x000228d8   0x00000072   Code   RO          684    i.suspend_to_sleep_mode  bmm150.o
    0x0002294a   0x0002294a   0x00000002   PAD
    0x0002294c   0x0002294c   0x000000c0   Code   RO         3540    i.timer_expire      app_timer2.o
    0x00022a0c   0x00022a0c   0x00000030   Code   RO         4727    i.uninit            nrf_fstorage_sd.o
    0x00022a3c   0x00022a3c   0x0000004c   Code   RO          802    i.unpack_accel_data  bmi160.o
    0x00022a88   0x00022a88   0x0000004c   Code   RO          803    i.unpack_gyro_data  bmi160.o
    0x00022ad4   0x00022ad4   0x00000118   Code   RO         4267    i.unsigned_print    nrf_fprintf_format.o
    0x00022bec   0x00022bec   0x0000007c   Code   RO         1710    i.update_timeout_handler  ble_conn_params.o
    0x00022c68   0x00022c68   0x00000054   Code   RO           49    i.usr_get_volt      main.o
    0x00022cbc   0x00022cbc   0x00000164   Code   RO         1552    i.uuid_list_encode  ble_advdata.o
    0x00022e20   0x00022e20   0x00000002   Code   RO           50    i.wdt_event_handler  main.o
    0x00022e22   0x00022e22   0x00000004   Code   RO         4728    i.wmap              nrf_fstorage_sd.o
    0x00022e26   0x00022e26   0x00000002   PAD
    0x00022e28   0x00022e28   0x00000064   Code   RO         4729    i.write             nrf_fstorage_sd.o
    0x00022e8c   0x00022e8c   0x00000004   PAD
    0x00022e90   0x00022e90   0x0000007c   Data   RO           55    .constdata          main.o
    0x00022f0c   0x00022f0c   0x00000008   Data   RO         1220    .constdata          boards.o
    0x00022f14   0x00022f14   0x0000002c   Data   RO         1341    .constdata          bsp.o
    0x00022f40   0x00022f40   0x0000000e   Data   RO         2014    .constdata          nrf_ble_gatt.o
    0x00022f4e   0x00022f4e   0x00000002   PAD
    0x00022f50   0x00022f50   0x00000010   Data   RO         2112    .constdata          ble_nus.o
    0x00022f60   0x00022f60   0x00000004   Data   RO         2594    .constdata          nrfx_gpiote.o
    0x00022f64   0x00022f64   0x00000014   Data   RO         3543    .constdata          app_timer2.o
    0x00022f78   0x00022f78   0x00000008   PAD
    0x00022f80   0x00022f80   0x00000006   Data   RO         3743    .constdata          drv_rtc.o
    0x00022f86   0x00022f86   0x00000010   Data   RO         4268    .constdata          nrf_fprintf_format.o
    0x00022f96   0x00022f96   0x00000002   PAD
    0x00022f98   0x00022f98   0x00000018   Data   RO         4378    .constdata          nrf_pwr_mgmt.o
    0x00022fb0   0x00022fb0   0x0000000c   Data   RO         4379    .constdata          nrf_pwr_mgmt.o
    0x00022fbc   0x00022fbc   0x0000013c   Data   RO         4592    .constdata          nrf_strerror.o
    0x000230f8   0x000230f8   0x0000005e   Data   RO         4649    .constdata          nrf_fstorage.o
    0x00023156   0x00023156   0x00000002   PAD
    0x00023158   0x00023158   0x00000010   Data   RO         4732    .constdata          nrf_fstorage_sd.o
    0x00023168   0x00023168   0x00000020   Data   RO         4733    .constdata          nrf_fstorage_sd.o
    0x00023188   0x00023188   0x0000000c   Data   RO         4821    .constdata          nrf_log_backend_rtt.o
    0x00023194   0x00023194   0x0000000c   PAD
    0x000231a0   0x000231a0   0x00000006   Data   RO         4822    .constdata          nrf_log_backend_rtt.o
    0x000231a6   0x000231a6   0x00000002   PAD
    0x000231a8   0x000231a8   0x0000000c   Data   RO         4980    .constdata          nrf_log_frontend.o
    0x000231b4   0x000231b4   0x00000010   Data   RO         5511    .constdata          nrf_sdh.o
    0x000231c4   0x000231c4   0x00000028   Data   RO         5512    .constdata          nrf_sdh.o
    0x000231ec   0x000231ec   0x00000010   Data   RO         5513    .constdata          nrf_sdh.o
    0x000231fc   0x000231fc   0x00000010   Data   RO         5514    .constdata          nrf_sdh.o
    0x0002320c   0x0002320c   0x00000020   Data   RO         5602    .constdata          nrf_sdh_ble.o
    0x0002322c   0x0002322c   0x00000010   Data   RO         5603    .constdata          nrf_sdh_ble.o
    0x0002323c   0x0002323c   0x00000010   Data   RO         5653    .constdata          nrf_sdh_soc.o
    0x0002324c   0x0002324c   0x0000000c   Data   RO         5654    .constdata          nrf_sdh_soc.o
    0x00023258   0x00023258   0x00000081   Data   RO         5744    .constdata          mc_w.l(ctype_o.o)
    0x000232d9   0x000232d9   0x00000003   PAD
    0x000232dc   0x000232dc   0x00000004   Data   RO         5745    .constdata          mc_w.l(ctype_o.o)
    0x000232e0   0x000232e0   0x00000041   Data   RO         1048    .conststring        nrf_flash.o
    0x00023321   0x00023321   0x00000003   PAD
    0x00023324   0x00023324   0x00000045   Data   RO         2015    .conststring        nrf_ble_gatt.o
    0x00023369   0x00023369   0x00000003   PAD
    0x0002336c   0x0002336c   0x000003eb   Data   RO         4593    .conststring        nrf_strerror.o
    0x00023757   0x00023757   0x00000001   PAD
    0x00023758   0x00023758   0x0000004f   Data   RO         4650    .conststring        nrf_fstorage.o
    0x000237a7   0x000237a7   0x00000001   PAD
    0x000237a8   0x000237a8   0x00000066   Data   RO         5129    .conststring        nrf_log_str_formatter.o
    0x0002380e   0x0002380e   0x00000002   PAD
    0x00023810   0x00023810   0x000001cf   Data   RO         5604    .conststring        nrf_sdh_ble.o
    0x000239df   0x000239df   0x00000001   PAD
    0x000239e0   0x000239e0   0x0000000d   Data   RO         2016    .conststrlit        nrf_ble_gatt.o
    0x000239ed   0x000239ed   0x00000003   PAD
    0x000239f0   0x000239f0   0x00000008   Data   RO         2113    .conststrlit        ble_nus.o
    0x000239f8   0x000239f8   0x00000006   Data   RO         2180    .conststrlit        nrf_drv_clock.o
    0x000239fe   0x000239fe   0x00000002   PAD
    0x00023a00   0x00023a00   0x00000006   Data   RO         2455    .conststrlit        nrfx_clock.o
    0x00023a06   0x00023a06   0x00000002   PAD
    0x00023a08   0x00023a08   0x00000007   Data   RO         2598    .conststrlit        nrfx_gpiote.o
    0x00023a0f   0x00023a0f   0x00000001   PAD
    0x00023a10   0x00023a10   0x00000006   Data   RO         2863    .conststrlit        nrfx_saadc.o
    0x00023a16   0x00023a16   0x00000002   PAD
    0x00023a18   0x00023a18   0x00000004   Data   RO         2969    .conststrlit        nrfx_spi.o
    0x00023a1c   0x00023a1c   0x00000004   Data   RO         3058    .conststrlit        nrfx_wdt.o
    0x00023a20   0x00023a20   0x00000004   Data   RO         3136    .conststrlit        nrfx_rtc.o
    0x00023a24   0x00023a24   0x0000000b   Data   RO         3239    .conststrlit        app_button.o
    0x00023a2f   0x00023a2f   0x00000001   PAD
    0x00023a30   0x00023a30   0x0000000a   Data   RO         3544    .conststrlit        app_timer2.o
    0x00023a3a   0x00023a3a   0x00000002   PAD
    0x00023a3c   0x00023a3c   0x00000009   Data   RO         4380    .conststrlit        nrf_pwr_mgmt.o
    0x00023a45   0x00023a45   0x00000003   PAD
    0x00023a48   0x00023a48   0x00000009   Data   RO         4539    .conststrlit        nrf_sortlist.o
    0x00023a51   0x00023a51   0x00000003   PAD
    0x00023a54   0x00023a54   0x0000000d   Data   RO         4651    .conststrlit        nrf_fstorage.o
    0x00023a61   0x00023a61   0x00000003   PAD
    0x00023a64   0x00023a64   0x00000010   Data   RO         4919    .conststrlit        nrf_log_default_backends.o
    0x00023a74   0x00023a74   0x00000004   Data   RO         4981    .conststrlit        nrf_log_frontend.o
    0x00023a78   0x00023a78   0x00000008   Data   RO         5515    .conststrlit        nrf_sdh.o
    0x00023a80   0x00023a80   0x0000000c   Data   RO         5605    .conststrlit        nrf_sdh_ble.o
    0x00023a8c   0x00023a8c   0x0000000c   Data   RO         5655    .conststrlit        nrf_sdh_soc.o
    0x00023a98   0x00023a98   0x00000020   Data   RO         5820    Region$$Table       anon$$obj.o
    0x00023ab8   0x00023ab8   0x00000010   Data   RO         4921    log_backends        nrf_log_default_backends.o
    0x00023ac8   0x00023ac8   0x00000008   Data   RO         2017    log_const_data      nrf_ble_gatt.o
    0x00023ad0   0x00023ad0   0x00000008   Data   RO         2114    log_const_data      ble_nus.o
    0x00023ad8   0x00023ad8   0x00000008   Data   RO         2181    log_const_data      nrf_drv_clock.o
    0x00023ae0   0x00023ae0   0x00000008   Data   RO         2457    log_const_data      nrfx_clock.o
    0x00023ae8   0x00023ae8   0x00000008   Data   RO         2599    log_const_data      nrfx_gpiote.o
    0x00023af0   0x00023af0   0x00000008   Data   RO         2864    log_const_data      nrfx_saadc.o
    0x00023af8   0x00023af8   0x00000008   Data   RO         2970    log_const_data      nrfx_spi.o
    0x00023b00   0x00023b00   0x00000008   Data   RO         3060    log_const_data      nrfx_wdt.o
    0x00023b08   0x00023b08   0x00000008   Data   RO         3138    log_const_data      nrfx_rtc.o
    0x00023b10   0x00023b10   0x00000008   Data   RO         3242    log_const_data      app_button.o
    0x00023b18   0x00023b18   0x00000008   Data   RO         3547    log_const_data      app_timer2.o
    0x00023b20   0x00023b20   0x00000008   Data   RO         4382    log_const_data      nrf_pwr_mgmt.o
    0x00023b28   0x00023b28   0x00000008   Data   RO         4540    log_const_data      nrf_sortlist.o
    0x00023b30   0x00023b30   0x00000008   Data   RO         4652    log_const_data      nrf_fstorage.o
    0x00023b38   0x00023b38   0x00000008   Data   RO         4985    log_const_data      nrf_log_frontend.o
    0x00023b40   0x00023b40   0x00000008   Data   RO         5517    log_const_data      nrf_sdh.o
    0x00023b48   0x00023b48   0x00000008   Data   RO         5607    log_const_data      nrf_sdh_ble.o
    0x00023b50   0x00023b50   0x00000008   Data   RO         5656    log_const_data      nrf_sdh_soc.o
    0x00023b58   0x00023b58   0x00000014   Data   RO         4986    nrf_balloc          nrf_log_frontend.o
    0x00023b6c   0x00023b6c   0x00000008   Data   RO         1789    sdh_ble_observers0  ble_conn_state.o
    0x00023b74   0x00023b74   0x00000010   Data   RO           62    sdh_ble_observers1  main.o
    0x00023b84   0x00023b84   0x00000008   Data   RO         1447    sdh_ble_observers1  bsp_btn_ble.o
    0x00023b8c   0x00023b8c   0x00000008   Data   RO         1713    sdh_ble_observers1  ble_conn_params.o
    0x00023b94   0x00023b94   0x00000010   Data   RO           63    sdh_ble_observers2  main.o
    0x00023ba4   0x00023ba4   0x00000008   Data   RO           64    sdh_ble_observers3  main.o
    0x00023bac   0x00023bac   0x00000008   Data   RO         4735    sdh_req_observers0  nrf_fstorage_sd.o
    0x00023bb4   0x00023bb4   0x00000008   Data   RO         2182    sdh_soc_observers0  nrf_drv_clock.o
    0x00023bbc   0x00023bbc   0x00000008   Data   RO         4736    sdh_soc_observers0  nrf_fstorage_sd.o
    0x00023bc4   0x00023bc4   0x00000008   Data   RO         5608    sdh_stack_observers0  nrf_sdh_ble.o
    0x00023bcc   0x00023bcc   0x00000008   Data   RO         5657    sdh_stack_observers0  nrf_sdh_soc.o
    0x00023bd4   0x00023bd4   0x00000008   Data   RO         2183    sdh_state_observers0  nrf_drv_clock.o
    0x00023bdc   0x00023bdc   0x00000008   Data   RO         4737    sdh_state_observers0  nrf_fstorage_sd.o


    Execution Region RW_IRAM1 (Exec base: 0x200022c8, Load base: 0x00023be4, Size: 0x000036c8, Max: 0x00003d38, ABSOLUTE, COMPRESSED[0x00000080])

    Exec Addr    Load Addr    Size         Type   Attr      Idx    E Section Name        Object

    0x200022c8   COMPRESSED   0x0000008c   Data   RW           56    .data               main.o
    0x20002354   COMPRESSED   0x00000004   PAD
    0x20002358   COMPRESSED   0x00000020   Data   RW           57    .data               main.o
    0x20002378   COMPRESSED   0x00000008   Data   RW           58    .data               main.o
    0x20002380   COMPRESSED   0x00000004   Data   RW           60    .data               main.o
    0x20002384   COMPRESSED   0x00000010   Data   RW         1342    .data               bsp.o
    0x20002394   COMPRESSED   0x00000004   PAD
    0x20002398   COMPRESSED   0x00000020   Data   RW         1343    .data               bsp.o
    0x200023b8   COMPRESSED   0x00000020   Data   RW         1344    .data               bsp.o
    0x200023d8   COMPRESSED   0x00000020   Data   RW         1345    .data               bsp.o
    0x200023f8   COMPRESSED   0x00000008   Data   RW         1446    .data               bsp_btn_ble.o
    0x20002400   COMPRESSED   0x00000008   Data   RW         1712    .data               ble_conn_params.o
    0x20002408   COMPRESSED   0x00000008   Data   RW         2456    .data               nrfx_clock.o
    0x20002410   COMPRESSED   0x00000008   Data   RW         2797    .data               nrf_drv_spi.o
    0x20002418   COMPRESSED   0x00000008   Data   RW         3059    .data               nrfx_wdt.o
    0x20002420   COMPRESSED   0x00000008   Data   RW         3137    .data               nrfx_rtc.o
    0x20002428   COMPRESSED   0x00000020   Data   RW         3545    .data               app_timer2.o
    0x20002448   COMPRESSED   0x00000004   Data   RW         3546    .data               app_timer2.o
    0x2000244c   COMPRESSED   0x0000000c   Data   RW         3744    .data               drv_rtc.o
    0x20002458   COMPRESSED   0x00000008   Data   RW         4381    .data               nrf_pwr_mgmt.o
    0x20002460   COMPRESSED   0x00000008   Data   RW         4734    .data               nrf_fstorage_sd.o
    0x20002468   COMPRESSED   0x00000001   Data   RW         4823    .data               nrf_log_backend_rtt.o
    0x20002469   COMPRESSED   0x00000003   PAD
    0x2000246c   COMPRESSED   0x00000008   Data   RW         4920    .data               nrf_log_default_backends.o
    0x20002474   COMPRESSED   0x00000004   Data   RW         4982    .data               nrf_log_frontend.o
    0x20002478   COMPRESSED   0x00000008   Data   RW         4983    .data               nrf_log_frontend.o
    0x20002480   COMPRESSED   0x00000008   Data   RW         4984    .data               nrf_log_frontend.o
    0x20002488   COMPRESSED   0x00000040   Data   RW         5130    .data               nrf_log_str_formatter.o
    0x200024c8   COMPRESSED   0x00000003   Data   RW         5516    .data               nrf_sdh.o
    0x200024cb   COMPRESSED   0x00000001   Data   RW         5606    .data               nrf_sdh_ble.o
    0x200024cc   COMPRESSED   0x00000004   Data   RW         5696    .data               system_nrf52805.o
    0x200024d0   COMPRESSED   0x00000014   Data   RW         1050    fs_data             nrf_flash.o
    0x200024e4        -       0x00002174   Zero   RW           51    .bss                main.o
    0x20004658        -       0x0000000c   Zero   RW         1340    .bss                bsp.o
    0x20004664   COMPRESSED   0x00000004   PAD
    0x20004668        -       0x00000050   Zero   RW         1711    .bss                ble_conn_params.o
    0x200046b8        -       0x0000007c   Zero   RW         1788    .bss                ble_conn_state.o
    0x20004734        -       0x00000014   Zero   RW         2175    .bss                nrf_drv_clock.o
    0x20004748        -       0x0000005c   Zero   RW         2593    .bss                nrfx_gpiote.o
    0x200047a4        -       0x00000030   Zero   RW         2854    .bss                nrfx_saadc.o
    0x200047d4        -       0x0000002c   Zero   RW         2966    .bss                nrfx_spi.o
    0x20004800        -       0x00000020   Zero   RW         3315    .bss                app_error.o
    0x20004820        -       0x00000010   Zero   RW         3541    .bss                app_timer2.o
    0x20004830        -       0x00000058   Zero   RW         3542    .bss                app_timer2.o
    0x20004888        -       0x0000000c   Zero   RW         3662    .bss                app_util_platform.o
    0x20004894        -       0x0000000c   Zero   RW         4377    .bss                nrf_pwr_mgmt.o
    0x200048a0        -       0x00000010   Zero   RW         4730    .bss                nrf_fstorage_sd.o
    0x200048b0        -       0x000000a0   Zero   RW         4731    .bss                nrf_fstorage_sd.o
    0x20004950        -       0x00000040   Zero   RW         4820    .bss                nrf_log_backend_rtt.o
    0x20004990        -       0x000000c0   Zero   RW         4976    .bss                nrf_log_frontend.o
    0x20004a50        -       0x00000080   Zero   RW         4977    .bss                nrf_log_frontend.o
    0x20004ad0        -       0x00000018   Zero   RW         4978    .bss                nrf_log_frontend.o
    0x20004ae8        -       0x00000420   Zero   RW         4979    .bss                nrf_log_frontend.o
    0x20004f08        -       0x00000288   Zero   RW         5195    .bss                segger_rtt.o
    0x20005190        -       0x00000800   Zero   RW         5684    STACK               arm_startup_nrf52805.o


==============================================================================

Image component sizes


      Code (inc. data)   RO Data    RW Data    ZI Data      Debug   Object Name

         0          0         19          0          0       2036   app_button.o
       108          6          0          0         32       3410   app_error.o
        26          0          0          0          0        532   app_error_handler_keil.o
       364        194          0          0          0       8047   app_error_weak.o
      1098         78         38         36        104      13661   app_timer2.o
       148         12          0          0         12       9674   app_util_platform.o
        36          8        512          0       2048        896   arm_startup_nrf52805.o
      1460          0          0          0          0      57884   ble_advdata.o
      1084         10          0          0          0      14975   ble_advertising.o
       796         36          8          8         80      11379   ble_conn_params.o
       486         70          8          0        124       7025   ble_conn_state.o
        82          0          0          0          0       2844   ble_link_ctx_manager.o
       764          6         32          0          0       8264   ble_nus.o
       468          6          0          0          0       3267   ble_srv_common.o
      5388          0          0          0          0      36897   bmi160.o
      1648          8          0          0          0      14653   bmm150.o
       246         38          8          0          0      34649   boards.o
      1018         62         44        112         12      18172   bsp.o
       226          6          8          8          0       8721   bsp_btn_ble.o
       742         82          6         12          0      41429   drv_rtc.o
      5704       1106        164        184       8564     260876   main.o
       350          0          0          0          0       6478   nrf_atfifo.o
        70          0          0          0          0       3096   nrf_atflags.o
       322          0          0          0          0       8099   nrf_atomic.o
       172          0          0          0          0       3492   nrf_balloc.o
       752        302        104          0          0       6721   nrf_ble_gatt.o
       320          0          0          0          0       5989   nrf_ble_qwr.o
       284         22         30          0         20      35618   nrf_drv_clock.o
        96         12          0          8          0      15503   nrf_drv_spi.o
       768        390         65         20          0     111107   nrf_flash.o
        58          0          0          0          0       3577   nrf_fprintf.o
      1406         10         16          0          0       7846   nrf_fprintf_format.o
      1396        598        194          0          0       8567   nrf_fstorage.o
       918         88         72          8        176      14287   nrf_fstorage_sd.o
       132         18         18          1         64       6029   nrf_log_backend_rtt.o
       196          0          0          0          0      10889   nrf_log_backend_serial.o
        32         10         32          8          0       1028   nrf_log_default_backends.o
      1556        100         44         20       1400      28947   nrf_log_frontend.o
       660        126        102         64          0       4552   nrf_log_str_formatter.o
       550          0          0          0          0       9575   nrf_memobj.o
        60         12         53          8         12       6295   nrf_pwr_mgmt.o
        28          0          0          0          0       2351   nrf_ringbuf.o
       956        268        104          3          0      37263   nrf_sdh.o
      1012        444        539          1          0       5477   nrf_sdh_ble.o
       140         70         56          0          0       2484   nrf_sdh_soc.o
        90          0          0          0          0       2172   nrf_section_iter.o
        96          0         17          0          0       4021   nrf_sortlist.o
        68          8       1319          0          0       2087   nrf_strerror.o
       204         36         14          8          0      37682   nrfx_clock.o
       368         18         19          0         92      45214   nrfx_gpiote.o
       176         10         12          8          0       7370   nrfx_rtc.o
      1228        136         14          0         48      18802   nrfx_saadc.o
      1024         18         12          0         44      16072   nrfx_spi.o
       260         54         12          8          0       7804   nrfx_wdt.o
       434         34          0          0        648       8366   segger_rtt.o
       308         10          0          0          0       3853   sys_queue.o
       428        120          0          4          0      26298   system_nrf52805.o

    ----------------------------------------------------------------------
     38852       4646       3788        540      13484    1084302   Object Totals
         0          0         32          0          0          0   (incl. Generated)
        42          4         61         11          4          0   (incl. Padding)

    ----------------------------------------------------------------------

      Code (inc. data)   RO Data    RW Data    ZI Data      Debug   Library Member Name

        86          0          0          0          0          0   __dczerorl2.o
         8          4        133          0          0         68   ctype_o.o
         0          0          0          0          0          0   entry.o
         0          0          0          0          0          0   entry10a.o
         0          0          0          0          0          0   entry11a.o
         4          0          0          0          0          0   entry12b.o
         8          4          0          0          0          0   entry2.o
         4          0          0          0          0          0   entry5.o
         0          0          0          0          0          0   entry7b.o
         0          0          0          0          0          0   entry8b.o
         8          4          0          0          0          0   entry9a.o
        30          0          0          0          0          0   handlers.o
        36          8          0          0          0         68   init.o
         0          0          0          0          0          0   iusefp.o
        30          0          0          0          0         68   llshl.o
        32          0          0          0          0         68   llushr.o
        36          0          0          0          0         68   memcpya.o
        36          0          0          0          0        108   memseta.o
        14          0          0          0          0         68   strlen.o
        98          0          0          0          0         92   uldiv.o
       222          0          0          0          0        100   ddiv.o
       186          0          0          0          0        176   depilogue.o
        50          0          0          0          0         76   dfixui.o
        34          0          0          0          0         76   dflti.o
        26          0          0          0          0         76   dfltui.o
       228          0          0          0          0         96   dmul.o
        46          0          0          0          0         80   dscalb.o

    ----------------------------------------------------------------------
      1228         20        136          0          0       1288   Library Totals
         6          0          3          0          0          0   (incl. Padding)

    ----------------------------------------------------------------------

      Code (inc. data)   RO Data    RW Data    ZI Data      Debug   Library Name

       430         20        133          0          0        608   mc_w.l
       792          0          0          0          0        680   mf_w.l

    ----------------------------------------------------------------------
      1228         20        136          0          0       1288   Library Totals

    ----------------------------------------------------------------------

==============================================================================


      Code (inc. data)   RO Data    RW Data    ZI Data      Debug   

     40080       4666       3924        540      13484    1072302   Grand Totals
     40080       4666       3924        128      13484    1072302   ELF Image Totals (compressed)
     40080       4666       3924        128          0          0   ROM Totals

==============================================================================

    Total RO  Size (Code + RO Data)                44004 (  42.97kB)
    Total RW  Size (RW Data + ZI Data)             14024 (  13.70kB)
    Total ROM Size (Code + RO Data + RW Data)      44132 (  43.10kB)

==============================================================================

